Certificate:
    Data:
        Version: 3 (0x2)
        Serial Number:
            17:37:00:a1:ce:35:e0:84:dd:e9:30:0c:a7:12:b9:50:88:9c:16:07
        Signature Algorithm: sha256WithRSAEncryption
        Issuer: C=US, ST=WA, L=Tacoma, O=Testnats, CN=Root CA
        Validity
            Not Before: May  1 19:02:58 2023 GMT
            Not After : Apr 28 19:02:58 2033 GMT
        Subject: C=US, ST=WA, L=Tacoma, O=Testnats, CN=CA OCSP Responder
        Subject Public Key Info:
            Public Key Algorithm: rsaEncryption
                Public-Key: (2048 bit)
                Modulus:
                    00:d6:10:15:61:34:1e:97:0d:c6:c2:7d:f2:0f:9a:
                    35:56:54:7a:9b:9e:a3:0b:ff:31:0d:db:49:4b:98:
                    e0:64:3a:3c:7f:4f:4b:d0:a8:01:80:c9:68:4e:76:
                    3b:be:7b:d9:56:8d:d4:fd:bf:e1:6f:d0:5c:88:07:
                    3f:05:a8:83:b3:7e:0b:ba:e0:36:f6:1c:e0:75:fd:
                    be:38:26:33:1b:42:96:4e:62:0b:88:36:ef:cc:14:
                    e3:97:86:dd:c2:78:d3:05:b7:4d:cd:2b:52:f2:11:
                    16:d2:7e:8f:f3:47:8c:f9:0f:1e:cd:5e:f7:a4:1c:
                    62:34:03:70:74:89:6b:bc:75:e3:30:82:c1:5b:67:
                    f3:d1:ca:81:13:10:d8:c5:d8:20:05:6d:d1:e7:51:
                    19:ac:03:96:2a:a1:21:ff:88:2e:d2:e9:67:79:cf:
                    ef:17:b5:2b:7c:10:1f:5e:79:3e:08:98:7f:42:bb:
                    8a:13:17:2d:9a:1a:8d:ff:36:c2:e9:c0:07:ea:cb:
                    4f:72:35:f7:f2:d9:86:d2:ab:6b:70:2b:57:82:c8:
                    02:93:aa:04:aa:00:3a:53:23:3d:61:82:32:0e:68:
                    33:7e:5f:03:52:c9:53:db:e3:26:46:8a:ab:e0:e5:
                    54:57:0d:e3:e3:24:b8:d9:69:92:0a:fb:bd:51:25:
                    89:fd
                Exponent: 65537 (0x10001)
        X509v3 extensions:
            X509v3 Subject Key Identifier: 
                D2:00:A2:C3:AA:00:76:1C:E7:67:37:96:89:77:38:69:C5:1B:5E:45
            X509v3 Authority Key Identifier: 
                C3:12:42:BA:A9:D8:4D:E0:C3:3E:BA:D7:47:41:A6:09:2F:6D:B4:E1
            X509v3 Basic Constraints: critical
                CA:FALSE
            X509v3 Key Usage: critical
                Digital Signature
            X509v3 Extended Key Usage: critical
                OCSP Signing
            X509v3 CRL Distribution Points: 
                Full Name:
                  URI:http://127.0.0.1:8888/root_crl.der
            Authority Information Access: 
                OCSP - URI:http://127.0.0.1:8888/
    Signature Algorithm: sha256WithRSAEncryption
    Signature Value:
        b0:36:29:84:91:de:14:e5:db:bf:55:fc:d8:0a:81:b5:df:84:
        e4:5c:ae:e2:3c:1d:05:09:8a:85:7a:9e:f4:82:61:1b:7b:8a:
        0f:1d:e3:ad:b0:60:45:12:2e:38:6d:9c:95:d2:42:fe:2e:1a:
        d2:a5:2c:82:40:1e:6c:4b:35:d1:3c:a6:4c:1c:73:c9:d0:32:
        e9:47:c9:9a:fa:d0:1a:ef:86:c7:1e:49:ca:62:f1:81:9d:4e:
        38:35:56:1b:53:fe:4a:f4:4c:91:31:8f:32:70:64:ee:91:f7:
        4e:fe:ab:c5:1e:84:d1:43:cd:af:f6:5d:2a:b1:4f:b1:f4:1f:
        5a:9d:33:7a:48:94:c8:88:23:e5:b9:c8:a1:4d:51:4c:d5:3b:
        5f:f7:e8:e5:e1:53:a6:de:c8:95:14:32:e0:52:db:43:d6:c9:
        2f:7f:96:07:fb:87:0a:f0:53:3d:ce:e1:56:6f:dc:0e:84:f3:
        e2:ef:dc:17:0f:59:1f:1a:70:d5:7f:08:36:3d:7e:8e:f8:1f:
        55:47:9a:96:1b:11:25:d9:27:7f:bf:e1:65:e5:16:ca:d9:bc:
        6f:5c:5e:a6:4c:d0:7a:24:8d:42:c4:dc:b5:4a:75:4a:7c:88:
        da:21:5e:27:e1:0c:36:64:69:10:58:81:3d:cd:74:df:50:85:
        c2:71:fe:43
-----BEGIN CERTIFICATE-----
MIIEGzCCAwOgAwIBAgIUFzcAoc414ITd6TAMpxK5UIicFgcwDQYJKoZIhvcNAQEL
BQAwUDELMAkGA1UEBhMCVVMxCzAJBgNVBAgMAldBMQ8wDQYDVQQHDAZUYWNvbWEx
ETAPBgNVBAoMCFRlc3RuYXRzMRAwDgYDVQQDDAdSb290IENBMB4XDTIzMDUwMTE5
MDI1OFoXDTMzMDQyODE5MDI1OFowWjELMAkGA1UEBhMCVVMxCzAJBgNVBAgMAldB
MQ8wDQYDVQQHDAZUYWNvbWExETAPBgNVBAoMCFRlc3RuYXRzMRowGAYDVQQDDBFD
QSBPQ1NQIFJlc3BvbmRlcjCCASIwDQYJKoZIhvcNAQEBBQADggEPADCCAQoCggEB
ANYQFWE0HpcNxsJ98g+aNVZUepueowv/MQ3bSUuY4GQ6PH9PS9CoAYDJaE52O757
2VaN1P2/4W/QXIgHPwWog7N+C7rgNvYc4HX9vjgmMxtClk5iC4g278wU45eG3cJ4
0wW3Tc0rUvIRFtJ+j/NHjPkPHs1e96QcYjQDcHSJa7x14zCCwVtn89HKgRMQ2MXY
IAVt0edRGawDliqhIf+ILtLpZ3nP7xe1K3wQH155PgiYf0K7ihMXLZoajf82wunA
B+rLT3I19/LZhtKra3ArV4LIApOqBKoAOlMjPWGCMg5oM35fA1LJU9vjJkaKq+Dl
VFcN4+MkuNlpkgr7vVElif0CAwEAAaOB4jCB3zAdBgNVHQ4EFgQU0gCiw6oAdhzn
ZzeWiXc4acUbXkUwHwYDVR0jBBgwFoAUwxJCuqnYTeDDPrrXR0GmCS9ttOEwDAYD
VR0TAQH/BAIwADAOBgNVHQ8BAf8EBAMCB4AwFgYDVR0lAQH/BAwwCgYIKwYBBQUH
AwkwMwYDVR0fBCwwKjAooCagJIYiaHR0cDovLzEyNy4wLjAuMTo4ODg4L3Jvb3Rf
Y3JsLmRlcjAyBggrBgEFBQcBAQQmMCQwIgYIKwYBBQUHMAGGFmh0dHA6Ly8xMjcu
MC4wLjE6ODg4OC8wDQYJKoZIhvcNAQELBQADggEBALA2KYSR3hTl279V/NgKgbXf
hORcruI8HQUJioV6nvSCYRt7ig8d462wYEUSLjhtnJXSQv4uGtKlLIJAHmxLNdE8
pkwcc8nQMulHyZr60BrvhsceScpi8YGdTjg1VhtT/kr0TJExjzJwZO6R907+q8Ue
hNFDza/2XSqxT7H0H1qdM3pIlMiII+W5yKFNUUzVO1/36OXhU6beyJUUMuBS20PW
yS9/lgf7hwrwUz3O4VZv3A6E8+Lv3BcPWR8acNV/CDY9fo74H1VHmpYbESXZJ3+/
4WXlFsrZvG9cXqZM0HokjULE3LVKdUp8iNohXifhDDZkaRBYgT3NdN9QhcJx/kM=
-----END CERTIFICATE-----
