Certificate:
    Data:
        Version: 3 (0x2)
        Serial Number:
            29:e1:52:8d:fd:a5:2a:87:eb:1d:e4:1d:47:6c:e1:8a:58:69:73:ab
        Signature Algorithm: sha256WithRSAEncryption
        Issuer: C=US, ST=WA, L=Tacoma, O=Testnats, CN=Intermediate CA 1
        Validity
            Not Before: May  1 19:28:39 2023 GMT
            Not After : Apr 28 19:28:39 2033 GMT
        Subject: C=US, ST=WA, L=Tacoma, O=Testnats, CN=OCSP Responder
        Subject Public Key Info:
            Public Key Algorithm: rsaEncryption
                Public-Key: (2048 bit)
                Modulus:
                    00:a3:0c:ca:eb:80:eb:a1:0e:1e:71:9b:d3:b3:f9:
                    65:ce:70:c2:21:06:3c:31:c1:06:7e:a5:a8:4a:e1:
                    21:a3:74:54:9f:57:ce:50:d6:c3:29:3c:43:b0:9d:
                    3e:54:94:ee:8d:fa:0d:71:6c:df:5e:9e:01:30:79:
                    6c:bb:97:5d:af:bb:5b:05:77:72:9f:55:e6:66:45:
                    f4:e2:c2:cf:7b:0e:58:d6:14:6a:76:29:ac:e3:30:
                    28:0d:ee:bd:ca:aa:ae:1f:1e:ef:40:f3:c3:ab:17:
                    f2:d7:ec:0d:e1:fb:68:9a:09:83:99:11:58:42:94:
                    f8:0d:d4:9a:6f:9f:3b:e8:56:f0:a9:b7:18:1a:91:
                    41:7c:43:e3:db:b1:01:f1:ad:0b:39:d7:65:98:e6:
                    15:b0:17:a9:56:6e:fb:84:7a:c0:cc:67:75:fc:f6:
                    75:84:31:78:c5:6d:51:8f:d0:19:d3:16:4f:87:ef:
                    5b:33:b9:7a:dd:fe:5f:a8:6a:fd:44:54:00:f3:a4:
                    a6:5b:fd:3b:65:38:4f:82:4f:b9:c4:bd:c9:9a:56:
                    fc:54:f1:58:2f:cb:ee:f4:08:fd:b7:ec:ad:28:08:
                    66:9b:f8:78:98:32:db:b1:56:dd:0e:31:ba:c6:e3:
                    56:f5:02:2f:fb:76:28:bb:c4:8b:f3:6b:da:aa:1d:
                    38:21
                Exponent: 65537 (0x10001)
        X509v3 extensions:
            X509v3 Subject Key Identifier: 
                CB:5E:50:60:7A:AB:2F:A9:3B:1E:24:AB:02:42:8D:EC:81:60:48:13
            X509v3 Authority Key Identifier: 
                B5:91:6E:4F:64:B7:16:84:76:F9:B4:BE:99:CE:60:95:98:1A:8E:9D
            X509v3 Basic Constraints: critical
                CA:FALSE
            X509v3 Key Usage: critical
                Digital Signature
            X509v3 Extended Key Usage: critical
                OCSP Signing
            X509v3 CRL Distribution Points: 
                Full Name:
                  URI:http://127.0.0.1:18888/intermediate1_crl.der
            Authority Information Access: 
                OCSP - URI:http://127.0.0.1:18888/
    Signature Algorithm: sha256WithRSAEncryption
    Signature Value:
        48:65:ce:6d:91:46:30:37:b6:f2:76:c0:42:e3:f5:ee:e9:32:
        0e:46:b5:d5:9d:ac:b0:f2:23:f5:35:a8:1c:61:66:81:c0:0d:
        bc:a4:bb:b5:be:47:58:8b:f1:d1:5f:73:83:d2:99:da:3e:a3:
        0b:32:81:96:a4:bd:a8:57:8e:fe:3d:c4:93:57:ef:05:77:60:
        c9:88:1c:2e:25:7e:ea:c8:95:8d:a6:4a:73:e5:bb:6c:c4:3b:
        01:03:90:8d:12:f5:69:13:c5:79:87:ae:45:cb:49:c8:90:24:
        39:30:cf:27:ba:31:1e:5f:5b:e0:0f:93:82:66:28:33:dc:e3:
        a1:a8:fc:ad:40:d0:48:31:63:fb:a0:6a:13:18:b1:8b:59:bb:
        ef:96:f8:83:98:6c:4a:18:37:1a:02:ad:c2:42:1d:7e:1c:dc:
        4a:77:b7:f5:ae:97:3e:17:e8:35:96:85:a0:e4:30:c5:03:0b:
        62:55:13:c1:3f:df:15:1b:c3:45:f7:69:d6:5e:f5:77:fc:4f:
        e8:28:3b:3e:f0:2c:20:22:81:72:a3:d6:1b:d1:52:63:86:21:
        22:06:7a:5b:f4:2a:c7:e5:b9:97:ac:1b:56:b5:4c:62:e9:f9:
        6f:49:5f:43:3d:9c:e6:85:3a:f8:c9:4c:33:fd:e9:aa:88:8e:
        cf:28:5c:69
-----BEGIN CERTIFICATE-----
MIIELTCCAxWgAwIBAgIUKeFSjf2lKofrHeQdR2zhilhpc6swDQYJKoZIhvcNAQEL
BQAwWjELMAkGA1UEBhMCVVMxCzAJBgNVBAgMAldBMQ8wDQYDVQQHDAZUYWNvbWEx
ETAPBgNVBAoMCFRlc3RuYXRzMRowGAYDVQQDDBFJbnRlcm1lZGlhdGUgQ0EgMTAe
Fw0yMzA1MDExOTI4MzlaFw0zMzA0MjgxOTI4MzlaMFcxCzAJBgNVBAYTAlVTMQsw
CQYDVQQIDAJXQTEPMA0GA1UEBwwGVGFjb21hMREwDwYDVQQKDAhUZXN0bmF0czEX
MBUGA1UEAwwOT0NTUCBSZXNwb25kZXIwggEiMA0GCSqGSIb3DQEBAQUAA4IBDwAw
ggEKAoIBAQCjDMrrgOuhDh5xm9Oz+WXOcMIhBjwxwQZ+pahK4SGjdFSfV85Q1sMp
PEOwnT5UlO6N+g1xbN9engEweWy7l12vu1sFd3KfVeZmRfTiws97DljWFGp2Kazj
MCgN7r3Kqq4fHu9A88OrF/LX7A3h+2iaCYOZEVhClPgN1JpvnzvoVvCptxgakUF8
Q+PbsQHxrQs512WY5hWwF6lWbvuEesDMZ3X89nWEMXjFbVGP0BnTFk+H71szuXrd
/l+oav1EVADzpKZb/TtlOE+CT7nEvcmaVvxU8Vgvy+70CP237K0oCGab+HiYMtux
Vt0OMbrG41b1Ai/7dii7xIvza9qqHTghAgMBAAGjge0wgeowHQYDVR0OBBYEFMte
UGB6qy+pOx4kqwJCjeyBYEgTMB8GA1UdIwQYMBaAFLWRbk9ktxaEdvm0vpnOYJWY
Go6dMAwGA1UdEwEB/wQCMAAwDgYDVR0PAQH/BAQDAgeAMBYGA1UdJQEB/wQMMAoG
CCsGAQUFBwMJMD0GA1UdHwQ2MDQwMqAwoC6GLGh0dHA6Ly8xMjcuMC4wLjE6MTg4
ODgvaW50ZXJtZWRpYXRlMV9jcmwuZGVyMDMGCCsGAQUFBwEBBCcwJTAjBggrBgEF
BQcwAYYXaHR0cDovLzEyNy4wLjAuMToxODg4OC8wDQYJKoZIhvcNAQELBQADggEB
AEhlzm2RRjA3tvJ2wELj9e7pMg5GtdWdrLDyI/U1qBxhZoHADbyku7W+R1iL8dFf
c4PSmdo+owsygZakvahXjv49xJNX7wV3YMmIHC4lfurIlY2mSnPlu2zEOwEDkI0S
9WkTxXmHrkXLSciQJDkwzye6MR5fW+APk4JmKDPc46Go/K1A0EgxY/ugahMYsYtZ
u++W+IOYbEoYNxoCrcJCHX4c3Ep3t/Wulz4X6DWWhaDkMMUDC2JVE8E/3xUbw0X3
adZe9Xf8T+goOz7wLCAigXKj1hvRUmOGISIGelv0KsfluZesG1a1TGLp+W9JX0M9
nOaFOvjJTDP96aqIjs8oXGk=
-----END CERTIFICATE-----
Certificate:
    Data:
        Version: 3 (0x2)
        Serial Number:
            55:57:db:45:43:06:ce:52:63:59:b9:5a:26:78:fd:0d:94:68:95:9c
        Signature Algorithm: sha256WithRSAEncryption
        Issuer: C=US, ST=WA, L=Tacoma, O=Testnats, CN=Root CA
        Validity
            Not Before: May  1 19:01:15 2023 GMT
            Not After : Apr 28 19:01:15 2033 GMT
        Subject: C=US, ST=WA, L=Tacoma, O=Testnats, CN=Intermediate CA 1
        Subject Public Key Info:
            Public Key Algorithm: rsaEncryption
                Public-Key: (2048 bit)
                Modulus:
                    00:bc:c6:84:2d:c2:ab:5d:05:d7:65:a8:e2:15:74:
                    d8:f2:f1:55:11:45:93:96:4c:a5:dc:cb:44:f5:f4:
                    14:7e:46:02:59:e8:ae:78:59:69:21:58:f7:16:38:
                    b9:c2:c2:60:d8:76:ab:a1:39:ba:0b:a3:03:17:e4:
                    a1:cb:5d:1a:0c:62:71:24:64:b0:00:f0:6f:4c:af:
                    08:62:8c:dc:4f:e0:d7:d4:55:2c:db:36:fc:a9:aa:
                    d7:58:27:e4:99:cb:dc:29:d9:ea:35:16:cb:2e:be:
                    04:b2:82:58:f4:e5:5c:07:db:12:8e:e3:3c:9a:5e:
                    90:4b:c5:a3:d4:21:96:5f:e1:8f:f7:cb:9e:db:e0:
                    10:a0:6c:a2:1e:30:17:6c:32:9f:7b:43:a4:9f:d3:
                    6b:33:1b:18:cd:a4:ad:33:48:a3:98:b0:2b:c8:22:
                    74:17:71:d8:f1:64:21:55:e1:33:bc:7f:74:5f:a5:
                    a6:a2:9b:58:2f:db:ed:c7:c1:e5:36:2e:86:26:ad:
                    c6:fe:b8:00:85:6e:7c:ed:fd:4a:c6:a0:d9:b2:3f:
                    4e:bd:fa:08:52:c8:5d:31:13:86:bd:3f:ec:7a:d8:
                    3a:15:e2:71:af:ec:00:88:7e:a6:e8:e1:9d:ab:57:
                    5a:8a:1f:f8:e2:4d:29:58:53:79:25:f0:9e:d9:18:
                    40:27
                Exponent: 65537 (0x10001)
        X509v3 extensions:
            X509v3 Subject Key Identifier: 
                B5:91:6E:4F:64:B7:16:84:76:F9:B4:BE:99:CE:60:95:98:1A:8E:9D
            X509v3 Authority Key Identifier: 
                C3:12:42:BA:A9:D8:4D:E0:C3:3E:BA:D7:47:41:A6:09:2F:6D:B4:E1
            X509v3 Basic Constraints: critical
                CA:TRUE, pathlen:0
            X509v3 Key Usage: critical
                Digital Signature, Certificate Sign, CRL Sign
            X509v3 CRL Distribution Points: 
                Full Name:
                  URI:http://127.0.0.1:8888/root_crl.der
            Authority Information Access: 
                OCSP - URI:http://127.0.0.1:8888/
    Signature Algorithm: sha256WithRSAEncryption
    Signature Value:
        b1:48:16:3b:d7:91:d0:4d:54:09:cb:ab:c7:41:4f:35:12:8b:
        a6:e8:84:11:49:a9:04:91:41:25:7c:02:38:b2:19:a0:e9:2e:
        d5:d6:7a:26:c1:1a:f8:f1:c6:51:92:68:af:c8:6e:5b:df:28:
        40:b8:99:94:d5:43:7d:e3:68:75:94:26:56:11:21:9e:50:b3:
        36:7b:f8:5f:33:76:64:71:04:26:2b:bb:2c:83:33:89:ba:74:
        c1:e9:9d:eb:c0:86:4b:4d:6f:f8:4d:55:5a:3d:f6:55:95:33:
        0f:b8:f0:53:2b:93:a6:da:8d:5c:1a:e8:30:22:55:67:44:6e:
        17:c4:57:05:0d:ce:fc:61:dd:b1:3c:b0:66:55:f4:42:d0:ce:
        94:7d:6a:82:bd:32:ed:2f:21:ff:c7:70:ff:48:9d:10:4a:71:
        be:a8:37:e5:0f:f4:79:1e:7d:a2:f1:6a:6b:2c:e8:03:20:ce:
        80:94:d2:38:80:bc:7e:56:c5:77:62:94:c0:b7:40:11:4d:ba:
        98:4b:2e:52:03:66:68:36:ab:d1:0f:3e:b5:92:a3:95:9d:a4:
        ea:d3:8a:14:41:6d:86:24:89:aa:d7:29:20:c8:52:d5:bf:8d:
        3b:09:52:dd:89:8c:2c:85:40:b5:9f:cc:47:63:ca:3a:e0:c9:
        91:5c:43:a9
-----BEGIN CERTIFICATE-----
MIIECTCCAvGgAwIBAgIUVVfbRUMGzlJjWblaJnj9DZRolZwwDQYJKoZIhvcNAQEL
BQAwUDELMAkGA1UEBhMCVVMxCzAJBgNVBAgMAldBMQ8wDQYDVQQHDAZUYWNvbWEx
ETAPBgNVBAoMCFRlc3RuYXRzMRAwDgYDVQQDDAdSb290IENBMB4XDTIzMDUwMTE5
MDExNVoXDTMzMDQyODE5MDExNVowWjELMAkGA1UEBhMCVVMxCzAJBgNVBAgMAldB
MQ8wDQYDVQQHDAZUYWNvbWExETAPBgNVBAoMCFRlc3RuYXRzMRowGAYDVQQDDBFJ
bnRlcm1lZGlhdGUgQ0EgMTCCASIwDQYJKoZIhvcNAQEBBQADggEPADCCAQoCggEB
ALzGhC3Cq10F12Wo4hV02PLxVRFFk5ZMpdzLRPX0FH5GAlnornhZaSFY9xY4ucLC
YNh2q6E5ugujAxfkoctdGgxicSRksADwb0yvCGKM3E/g19RVLNs2/Kmq11gn5JnL
3CnZ6jUWyy6+BLKCWPTlXAfbEo7jPJpekEvFo9Qhll/hj/fLntvgEKBsoh4wF2wy
n3tDpJ/TazMbGM2krTNIo5iwK8gidBdx2PFkIVXhM7x/dF+lpqKbWC/b7cfB5TYu
hiatxv64AIVufO39Ssag2bI/Tr36CFLIXTEThr0/7HrYOhXica/sAIh+pujhnatX
Woof+OJNKVhTeSXwntkYQCcCAwEAAaOB0DCBzTAdBgNVHQ4EFgQUtZFuT2S3FoR2
+bS+mc5glZgajp0wHwYDVR0jBBgwFoAUwxJCuqnYTeDDPrrXR0GmCS9ttOEwEgYD
VR0TAQH/BAgwBgEB/wIBADAOBgNVHQ8BAf8EBAMCAYYwMwYDVR0fBCwwKjAooCag
JIYiaHR0cDovLzEyNy4wLjAuMTo4ODg4L3Jvb3RfY3JsLmRlcjAyBggrBgEFBQcB
AQQmMCQwIgYIKwYBBQUHMAGGFmh0dHA6Ly8xMjcuMC4wLjE6ODg4OC8wDQYJKoZI
hvcNAQELBQADggEBALFIFjvXkdBNVAnLq8dBTzUSi6bohBFJqQSRQSV8AjiyGaDp
LtXWeibBGvjxxlGSaK/IblvfKEC4mZTVQ33jaHWUJlYRIZ5QszZ7+F8zdmRxBCYr
uyyDM4m6dMHpnevAhktNb/hNVVo99lWVMw+48FMrk6bajVwa6DAiVWdEbhfEVwUN
zvxh3bE8sGZV9ELQzpR9aoK9Mu0vIf/HcP9InRBKcb6oN+UP9HkefaLxamss6AMg
zoCU0jiAvH5WxXdilMC3QBFNuphLLlIDZmg2q9EPPrWSo5WdpOrTihRBbYYkiarX
KSDIUtW/jTsJUt2JjCyFQLWfzEdjyjrgyZFcQ6k=
-----END CERTIFICATE-----
