Certificate:
    Data:
        Version: 3 (0x2)
        Serial Number:
            1e:dc:a2:b9:fd:aa:6e:73:ae:1c:7d:8d:13:73:d1:cd:16:bb:40:90
        Signature Algorithm: sha256WithRSAEncryption
        Issuer: C=US, ST=WA, L=Tacoma, O=Testnats, CN=Intermediate CA 2
        Validity
            Not Before: May  1 19:40:31 2023 GMT
            Not After : Apr 28 19:40:31 2033 GMT
        Subject: C=US, ST=WA, L=Tacoma, O=Testnats, CN=UserB2
        Subject Public Key Info:
            Public Key Algorithm: rsaEncryption
                Public-Key: (2048 bit)
                Modulus:
                    00:b2:1d:92:83:be:0f:40:5c:b8:34:93:66:28:ea:
                    d3:85:1e:ec:66:e3:97:d0:fe:a7:2d:2c:89:c4:aa:
                    e0:ff:62:a2:8b:19:19:8a:1f:bb:a9:24:2f:a8:a1:
                    16:95:a7:5b:42:65:2f:03:27:12:ac:44:fb:2f:e0:
                    9b:19:52:32:a7:db:83:d0:1a:d6:36:d7:b7:40:0e:
                    85:c6:a7:75:5c:d1:71:a9:99:d3:da:2b:70:f9:9e:
                    9d:0b:a8:35:bc:3c:7f:24:1e:b5:2e:83:31:07:c9:
                    9b:4a:0e:a3:32:36:bd:a6:2c:55:79:f8:71:66:6a:
                    2a:8f:f9:f9:67:b0:06:21:e4:2a:02:44:b6:39:84:
                    18:7a:00:5e:34:36:f4:61:0d:11:a9:e2:0c:b8:05:
                    ed:67:97:bc:29:e7:69:ac:48:6e:fb:78:e9:3b:38:
                    e3:db:09:cb:22:0f:9a:57:1c:cc:06:f1:f7:44:66:
                    d0:01:c4:c1:14:65:29:e5:cf:19:26:73:c9:8a:5c:
                    2b:25:a9:d1:c6:3e:d8:4d:f5:f3:67:c7:23:b9:7b:
                    2b:f5:97:28:89:81:99:9d:82:45:21:27:f4:ca:86:
                    02:22:2f:26:4b:61:8a:cb:76:fb:b1:7b:4c:42:b6:
                    25:e8:3e:cb:ab:2c:60:a7:a3:82:fb:ef:05:59:03:
                    a5:5b
                Exponent: 65537 (0x10001)
        X509v3 extensions:
            X509v3 Subject Key Identifier: 
                C6:25:DB:6C:4E:18:89:96:67:30:E8:5F:EC:0C:03:70:A4:4C:07:98
            X509v3 Authority Key Identifier: 
                75:55:E2:8E:E7:AD:A5:DD:80:3D:C9:33:0B:2C:A2:57:77:ED:15:AC
            X509v3 Basic Constraints: critical
                CA:FALSE
            Netscape Cert Type: 
                SSL Client, S/MIME
            X509v3 Key Usage: critical
                Digital Signature, Non Repudiation, Key Encipherment
            X509v3 Extended Key Usage: 
                TLS Web Client Authentication, E-mail Protection
            X509v3 CRL Distribution Points: 
                Full Name:
                  URI:http://127.0.0.1:28888/intermediate2_crl.der
            Authority Information Access: 
                OCSP - URI:http://127.0.0.1:28888/
            X509v3 Subject Alternative Name: 
                email:UserB2@user.net
    Signature Algorithm: sha256WithRSAEncryption
    Signature Value:
        7d:93:8d:17:4b:fe:9e:5d:d0:4e:c3:47:dc:6c:05:1b:10:7f:
        9d:24:75:ea:30:27:c3:b1:26:2c:38:c3:c9:18:ec:21:d2:ef:
        07:b2:d4:f9:2e:a1:a2:1a:a5:68:cb:1a:14:55:7f:82:05:8a:
        a3:0d:11:f0:ed:f2:e2:c0:e3:6a:1c:76:42:01:92:68:2b:f7:
        4d:98:ae:7b:02:f1:36:2e:44:67:43:39:8e:08:91:f1:f0:ab:
        9c:84:df:08:80:bf:76:6b:37:3f:e8:70:e0:d6:27:73:e9:bc:
        49:1f:c2:4a:15:51:22:c6:f3:85:52:e3:a6:93:aa:f6:c9:b4:
        96:f2:09:e6:62:53:0e:87:76:fd:7a:38:69:e2:41:54:c5:51:
        6e:cf:bc:1a:7b:0a:ef:c6:6e:be:b5:72:4d:f4:6f:fd:a5:a8:
        ba:23:15:80:fa:b6:37:8d:68:d8:3e:36:c5:ae:f6:6c:22:a0:
        00:0d:93:e1:ae:41:9a:d7:35:d0:ab:98:71:1b:6b:8d:da:78:
        65:3c:97:be:9c:9e:d7:32:a1:0c:2b:60:ac:74:18:18:e4:48:
        87:40:dd:bf:eb:0e:27:17:96:a1:aa:32:a9:58:b5:ee:fc:42:
        7e:d7:71:a4:8e:a0:5b:06:6f:f1:85:27:8c:6b:20:df:e0:6b:
        13:5f:cf:4c
-----BEGIN CERTIFICATE-----
MIIEXTCCA0WgAwIBAgIUHtyiuf2qbnOuHH2NE3PRzRa7QJAwDQYJKoZIhvcNAQEL
BQAwWjELMAkGA1UEBhMCVVMxCzAJBgNVBAgMAldBMQ8wDQYDVQQHDAZUYWNvbWEx
ETAPBgNVBAoMCFRlc3RuYXRzMRowGAYDVQQDDBFJbnRlcm1lZGlhdGUgQ0EgMjAe
Fw0yMzA1MDExOTQwMzFaFw0zMzA0MjgxOTQwMzFaME8xCzAJBgNVBAYTAlVTMQsw
CQYDVQQIDAJXQTEPMA0GA1UEBwwGVGFjb21hMREwDwYDVQQKDAhUZXN0bmF0czEP
MA0GA1UEAwwGVXNlckIyMIIBIjANBgkqhkiG9w0BAQEFAAOCAQ8AMIIBCgKCAQEA
sh2Sg74PQFy4NJNmKOrThR7sZuOX0P6nLSyJxKrg/2KiixkZih+7qSQvqKEWladb
QmUvAycSrET7L+CbGVIyp9uD0BrWNte3QA6Fxqd1XNFxqZnT2itw+Z6dC6g1vDx/
JB61LoMxB8mbSg6jMja9pixVefhxZmoqj/n5Z7AGIeQqAkS2OYQYegBeNDb0YQ0R
qeIMuAXtZ5e8KedprEhu+3jpOzjj2wnLIg+aVxzMBvH3RGbQAcTBFGUp5c8ZJnPJ
ilwrJanRxj7YTfXzZ8cjuXsr9ZcoiYGZnYJFISf0yoYCIi8mS2GKy3b7sXtMQrYl
6D7Lqyxgp6OC++8FWQOlWwIDAQABo4IBJDCCASAwHQYDVR0OBBYEFMYl22xOGImW
ZzDoX+wMA3CkTAeYMB8GA1UdIwQYMBaAFHVV4o7nraXdgD3JMwssold37RWsMAwG
A1UdEwEB/wQCMAAwEQYJYIZIAYb4QgEBBAQDAgWgMA4GA1UdDwEB/wQEAwIF4DAd
BgNVHSUEFjAUBggrBgEFBQcDAgYIKwYBBQUHAwQwPQYDVR0fBDYwNDAyoDCgLoYs
aHR0cDovLzEyNy4wLjAuMToyODg4OC9pbnRlcm1lZGlhdGUyX2NybC5kZXIwMwYI
KwYBBQUHAQEEJzAlMCMGCCsGAQUFBzABhhdodHRwOi8vMTI3LjAuMC4xOjI4ODg4
LzAaBgNVHREEEzARgQ9Vc2VyQjJAdXNlci5uZXQwDQYJKoZIhvcNAQELBQADggEB
AH2TjRdL/p5d0E7DR9xsBRsQf50kdeowJ8OxJiw4w8kY7CHS7wey1PkuoaIapWjL
GhRVf4IFiqMNEfDt8uLA42ocdkIBkmgr902YrnsC8TYuRGdDOY4IkfHwq5yE3wiA
v3ZrNz/ocODWJ3PpvEkfwkoVUSLG84VS46aTqvbJtJbyCeZiUw6Hdv16OGniQVTF
UW7PvBp7Cu/Gbr61ck30b/2lqLojFYD6tjeNaNg+NsWu9mwioAANk+GuQZrXNdCr
mHEba43aeGU8l76cntcyoQwrYKx0GBjkSIdA3b/rDicXlqGqMqlYte78Qn7XcaSO
oFsGb/GFJ4xrIN/gaxNfz0w=
-----END CERTIFICATE-----
Certificate:
    Data:
        Version: 3 (0x2)
        Serial Number:
            3c:d7:16:fb:15:99:81:4e:53:f8:80:7c:b6:7c:77:a6:06:a4:3e:ea
        Signature Algorithm: sha256WithRSAEncryption
        Issuer: C=US, ST=WA, L=Tacoma, O=Testnats, CN=Root CA
        Validity
            Not Before: May  1 19:01:43 2023 GMT
            Not After : Apr 28 19:01:43 2033 GMT
        Subject: C=US, ST=WA, L=Tacoma, O=Testnats, CN=Intermediate CA 2
        Subject Public Key Info:
            Public Key Algorithm: rsaEncryption
                Public-Key: (2048 bit)
                Modulus:
                    00:da:5f:ff:1d:f7:8d:1a:9e:9a:f3:2b:68:8f:c1:
                    0c:33:06:41:00:c9:3e:e4:1a:e1:e0:70:6a:f5:2f:
                    ad:df:f3:e9:99:ed:c5:d7:aa:93:13:37:ff:47:aa:
                    f3:c5:89:f7:b7:ad:3a:47:e5:9c:4e:9f:8c:e2:41:
                    ed:a4:7c:9d:88:32:ae:f5:8a:84:9f:0c:18:a0:b3:
                    fe:8e:dc:2a:88:6a:f5:2f:9c:86:92:fa:7b:6e:b3:
                    5a:78:67:53:0b:21:6c:0d:6c:80:1a:0e:1e:ee:06:
                    c4:d2:e7:24:c6:e5:74:be:1e:2e:17:55:2b:e5:9f:
                    0b:a0:58:cc:fe:bf:53:37:f7:dc:95:88:f4:77:a6:
                    59:b4:b8:7c:a2:4b:b7:6a:67:aa:84:dc:29:f1:f9:
                    d7:89:05:4d:0b:f3:8b:2d:52:99:57:ed:6f:11:9e:
                    af:28:a3:61:44:c2:ec:6e:7f:9f:3d:0b:dc:f7:19:
                    6d:14:8a:a5:b8:b6:29:02:34:90:b4:96:c1:cb:a7:
                    42:46:97:cf:8d:59:fd:17:b1:a6:27:a7:7b:8a:47:
                    6f:fa:03:24:1c:12:25:ee:34:d6:5c:da:45:98:23:
                    30:e1:48:c9:9a:df:37:aa:1b:70:6c:b2:0f:95:39:
                    d6:6d:3e:25:20:a8:07:2c:48:57:0c:99:52:cb:89:
                    08:41
                Exponent: 65537 (0x10001)
        X509v3 extensions:
            X509v3 Subject Key Identifier: 
                75:55:E2:8E:E7:AD:A5:DD:80:3D:C9:33:0B:2C:A2:57:77:ED:15:AC
            X509v3 Authority Key Identifier: 
                C3:12:42:BA:A9:D8:4D:E0:C3:3E:BA:D7:47:41:A6:09:2F:6D:B4:E1
            X509v3 Basic Constraints: critical
                CA:TRUE, pathlen:0
            X509v3 Key Usage: critical
                Digital Signature, Certificate Sign, CRL Sign
            X509v3 CRL Distribution Points: 
                Full Name:
                  URI:http://127.0.0.1:8888/root_crl.der
            Authority Information Access: 
                OCSP - URI:http://127.0.0.1:8888/
    Signature Algorithm: sha256WithRSAEncryption
    Signature Value:
        1f:c6:fc:1c:a1:a5:6d:76:f0:7d:28:1f:e1:15:ab:86:e0:c3:
        dd:a0:17:96:0a:c0:16:32:52:37:a4:b6:ad:24:d7:fd:3c:01:
        34:3b:a9:a2:ea:81:05:e7:06:5f:a3:af:7b:fa:b2:a9:c3:63:
        89:bb:0c:70:48:e9:73:cc:33:64:cd:b3:71:88:d1:d1:a1:5a:
        22:a6:ed:03:46:8e:9a:c0:92:37:46:9b:e5:37:78:a5:43:d5:
        46:99:1b:34:40:27:8f:95:dd:c6:9a:55:d9:60:25:8d:b8:e9:
        6e:c9:b3:ee:e8:f0:d9:11:ef:4e:ae:1e:03:70:03:60:66:fd:
        ab:b0:f4:74:b6:27:7c:7a:96:9d:86:58:5f:5c:d3:04:ab:16:
        57:12:53:51:c7:93:ca:0b:4e:67:27:2d:b7:20:79:b6:b7:8c:
        e7:c3:d9:25:5e:25:63:cf:93:f0:6e:31:c0:d5:4f:05:1c:8d:
        14:1b:6a:d5:01:b6:7a:09:6f:38:f3:e5:e2:5a:e4:e2:42:d5:
        8a:8d:de:ef:73:25:85:3c:e3:a9:ef:f7:f7:23:4f:d3:27:c2:
        3a:c6:c0:6f:2a:9b:1e:fe:fc:31:73:10:e1:08:62:98:2b:6d:
        2f:cc:ab:dd:3a:65:c2:00:7f:29:18:32:cd:8f:56:a9:1d:86:
        f1:5e:60:55
-----BEGIN CERTIFICATE-----
MIIECTCCAvGgAwIBAgIUPNcW+xWZgU5T+IB8tnx3pgakPuowDQYJKoZIhvcNAQEL
BQAwUDELMAkGA1UEBhMCVVMxCzAJBgNVBAgMAldBMQ8wDQYDVQQHDAZUYWNvbWEx
ETAPBgNVBAoMCFRlc3RuYXRzMRAwDgYDVQQDDAdSb290IENBMB4XDTIzMDUwMTE5
MDE0M1oXDTMzMDQyODE5MDE0M1owWjELMAkGA1UEBhMCVVMxCzAJBgNVBAgMAldB
MQ8wDQYDVQQHDAZUYWNvbWExETAPBgNVBAoMCFRlc3RuYXRzMRowGAYDVQQDDBFJ
bnRlcm1lZGlhdGUgQ0EgMjCCASIwDQYJKoZIhvcNAQEBBQADggEPADCCAQoCggEB
ANpf/x33jRqemvMraI/BDDMGQQDJPuQa4eBwavUvrd/z6ZntxdeqkxM3/0eq88WJ
97etOkflnE6fjOJB7aR8nYgyrvWKhJ8MGKCz/o7cKohq9S+chpL6e26zWnhnUwsh
bA1sgBoOHu4GxNLnJMbldL4eLhdVK+WfC6BYzP6/Uzf33JWI9HemWbS4fKJLt2pn
qoTcKfH514kFTQvziy1SmVftbxGeryijYUTC7G5/nz0L3PcZbRSKpbi2KQI0kLSW
wcunQkaXz41Z/Rexpiene4pHb/oDJBwSJe401lzaRZgjMOFIyZrfN6obcGyyD5U5
1m0+JSCoByxIVwyZUsuJCEECAwEAAaOB0DCBzTAdBgNVHQ4EFgQUdVXijuetpd2A
PckzCyyiV3ftFawwHwYDVR0jBBgwFoAUwxJCuqnYTeDDPrrXR0GmCS9ttOEwEgYD
VR0TAQH/BAgwBgEB/wIBADAOBgNVHQ8BAf8EBAMCAYYwMwYDVR0fBCwwKjAooCag
JIYiaHR0cDovLzEyNy4wLjAuMTo4ODg4L3Jvb3RfY3JsLmRlcjAyBggrBgEFBQcB
AQQmMCQwIgYIKwYBBQUHMAGGFmh0dHA6Ly8xMjcuMC4wLjE6ODg4OC8wDQYJKoZI
hvcNAQELBQADggEBAB/G/ByhpW128H0oH+EVq4bgw92gF5YKwBYyUjektq0k1/08
ATQ7qaLqgQXnBl+jr3v6sqnDY4m7DHBI6XPMM2TNs3GI0dGhWiKm7QNGjprAkjdG
m+U3eKVD1UaZGzRAJ4+V3caaVdlgJY246W7Js+7o8NkR706uHgNwA2Bm/auw9HS2
J3x6lp2GWF9c0wSrFlcSU1HHk8oLTmcnLbcgeba3jOfD2SVeJWPPk/BuMcDVTwUc
jRQbatUBtnoJbzjz5eJa5OJC1YqN3u9zJYU846nv9/cjT9MnwjrGwG8qmx7+/DFz
EOEIYpgrbS/Mq906ZcIAfykYMs2PVqkdhvFeYFU=
-----END CERTIFICATE-----
