Certificate:
    Data:
        Version: 3 (0x2)
        Serial Number:
            3a:d5:76:e0:a4:4b:67:ba:da:f2:9b:15:09:4c:ff:54:58:1d:e9:92
        Signature Algorithm: sha256WithRSAEncryption
        Issuer: C=US, ST=WA, L=Tacoma, O=Testnats, CN=Intermediate CA 2
        Validity
            Not Before: May  1 19:40:31 2023 GMT
            Not After : Apr 28 19:40:31 2033 GMT
        Subject: C=US, ST=WA, L=Tacoma, O=Testnats, CN=UserB1
        Subject Public Key Info:
            Public Key Algorithm: rsaEncryption
                Public-Key: (2048 bit)
                Modulus:
                    00:ba:19:65:ab:3f:2e:f2:7a:93:ea:06:eb:a2:9a:
                    c5:b9:20:66:2e:74:1b:94:5a:43:1c:8c:22:72:00:
                    79:2d:20:18:e3:4a:35:a6:df:8a:58:33:73:2c:28:
                    20:e7:d9:85:ec:f5:81:ae:44:44:55:66:65:d6:b5:
                    78:71:c4:d8:c2:7b:4c:2d:8b:18:b6:86:fc:50:c0:
                    7e:b6:6e:f7:76:c0:30:6c:67:09:53:2d:87:98:d6:
                    d4:d8:b3:a9:80:45:93:7f:33:3f:41:2a:70:f3:e1:
                    df:a0:85:64:4b:25:e4:91:e9:e6:c8:c3:a0:3e:b3:
                    ef:97:1f:ae:9d:44:84:35:26:26:4e:0c:7a:1d:c7:
                    ef:b6:46:8d:82:b8:b0:18:fb:25:77:04:20:8c:da:
                    af:fa:9e:a2:b0:67:b6:a6:5b:d7:95:a5:3c:3e:76:
                    b4:37:4a:48:98:34:96:9d:d2:ff:36:6a:f4:2a:cd:
                    85:b3:e3:71:74:0f:e0:25:f1:06:cb:9d:53:fc:b4:
                    5d:c4:8d:7a:0b:bd:16:ee:5c:58:21:ad:49:34:9f:
                    9e:1b:6d:f6:47:52:1f:a0:74:00:fe:3c:4d:5f:4c:
                    5a:23:4a:d5:4c:ff:3f:42:5d:85:df:f6:3b:32:c4:
                    ca:4b:d0:9d:4b:9e:86:a6:64:44:b8:ae:24:1a:f4:
                    66:6b
                Exponent: 65537 (0x10001)
        X509v3 extensions:
            X509v3 Subject Key Identifier: 
                EC:AB:7B:4D:CD:62:D6:89:63:69:FE:97:34:5A:96:58:A5:94:A6:D9
            X509v3 Authority Key Identifier: 
                75:55:E2:8E:E7:AD:A5:DD:80:3D:C9:33:0B:2C:A2:57:77:ED:15:AC
            X509v3 Basic Constraints: critical
                CA:FALSE
            Netscape Cert Type: 
                SSL Client, S/MIME
            X509v3 Key Usage: critical
                Digital Signature, Non Repudiation, Key Encipherment
            X509v3 Extended Key Usage: 
                TLS Web Client Authentication, E-mail Protection
            X509v3 CRL Distribution Points: 
                Full Name:
                  URI:http://127.0.0.1:28888/intermediate2_crl.der
            Authority Information Access: 
                OCSP - URI:http://127.0.0.1:28888/
            X509v3 Subject Alternative Name: 
                email:UserB1@user.net
    Signature Algorithm: sha256WithRSAEncryption
    Signature Value:
        a8:78:fa:c2:44:e0:b9:c7:af:d5:cc:b6:b4:2b:3d:74:ae:b8:
        d1:e1:22:d0:63:7d:77:97:db:97:2f:f1:f0:ce:e3:9e:5e:e1:
        2a:19:54:00:38:7b:30:0b:8b:95:3a:4b:5d:83:08:80:fe:29:
        85:72:fd:c9:80:6b:c3:fd:a3:00:4f:b5:f2:34:a3:42:54:77:
        77:70:43:40:fe:1f:7a:b7:7f:55:c3:c0:e2:44:d1:95:fb:4c:
        eb:f8:39:dd:b6:3d:07:27:39:8e:89:e4:a8:49:fd:02:70:65:
        72:6f:c7:d4:12:57:bd:47:ea:7d:2d:63:b4:fe:81:33:20:3c:
        e0:36:a2:60:58:79:5e:ce:6c:ed:7c:97:6e:6b:52:25:8d:73:
        bb:ea:b5:8b:1e:d2:97:24:88:59:ea:a4:29:a3:ea:04:45:e1:
        6a:cd:c8:b9:13:44:57:f8:7e:1a:85:34:11:71:f9:10:a4:6f:
        07:d4:7d:21:84:f1:52:6f:f9:e8:36:83:28:32:aa:ad:2a:c3:
        fb:98:02:c7:2e:2c:49:08:21:af:fe:15:0e:f3:ce:e7:24:b5:
        c8:08:d6:20:e8:8c:24:ce:1f:84:0b:9a:46:07:8c:05:d0:86:
        04:06:2b:a2:a8:e2:20:c1:1f:ac:07:fc:ac:e0:f5:ee:7a:c6:
        5a:e4:81:74
-----BEGIN CERTIFICATE-----
MIIEXTCCA0WgAwIBAgIUOtV24KRLZ7ra8psVCUz/VFgd6ZIwDQYJKoZIhvcNAQEL
BQAwWjELMAkGA1UEBhMCVVMxCzAJBgNVBAgMAldBMQ8wDQYDVQQHDAZUYWNvbWEx
ETAPBgNVBAoMCFRlc3RuYXRzMRowGAYDVQQDDBFJbnRlcm1lZGlhdGUgQ0EgMjAe
Fw0yMzA1MDExOTQwMzFaFw0zMzA0MjgxOTQwMzFaME8xCzAJBgNVBAYTAlVTMQsw
CQYDVQQIDAJXQTEPMA0GA1UEBwwGVGFjb21hMREwDwYDVQQKDAhUZXN0bmF0czEP
MA0GA1UEAwwGVXNlckIxMIIBIjANBgkqhkiG9w0BAQEFAAOCAQ8AMIIBCgKCAQEA
uhllqz8u8nqT6gbroprFuSBmLnQblFpDHIwicgB5LSAY40o1pt+KWDNzLCgg59mF
7PWBrkREVWZl1rV4ccTYwntMLYsYtob8UMB+tm73dsAwbGcJUy2HmNbU2LOpgEWT
fzM/QSpw8+HfoIVkSyXkkenmyMOgPrPvlx+unUSENSYmTgx6HcfvtkaNgriwGPsl
dwQgjNqv+p6isGe2plvXlaU8Pna0N0pImDSWndL/Nmr0Ks2Fs+NxdA/gJfEGy51T
/LRdxI16C70W7lxYIa1JNJ+eG232R1IfoHQA/jxNX0xaI0rVTP8/Ql2F3/Y7MsTK
S9CdS56GpmREuK4kGvRmawIDAQABo4IBJDCCASAwHQYDVR0OBBYEFOyre03NYtaJ
Y2n+lzRallillKbZMB8GA1UdIwQYMBaAFHVV4o7nraXdgD3JMwssold37RWsMAwG
A1UdEwEB/wQCMAAwEQYJYIZIAYb4QgEBBAQDAgWgMA4GA1UdDwEB/wQEAwIF4DAd
BgNVHSUEFjAUBggrBgEFBQcDAgYIKwYBBQUHAwQwPQYDVR0fBDYwNDAyoDCgLoYs
aHR0cDovLzEyNy4wLjAuMToyODg4OC9pbnRlcm1lZGlhdGUyX2NybC5kZXIwMwYI
KwYBBQUHAQEEJzAlMCMGCCsGAQUFBzABhhdodHRwOi8vMTI3LjAuMC4xOjI4ODg4
LzAaBgNVHREEEzARgQ9Vc2VyQjFAdXNlci5uZXQwDQYJKoZIhvcNAQELBQADggEB
AKh4+sJE4LnHr9XMtrQrPXSuuNHhItBjfXeX25cv8fDO455e4SoZVAA4ezALi5U6
S12DCID+KYVy/cmAa8P9owBPtfI0o0JUd3dwQ0D+H3q3f1XDwOJE0ZX7TOv4Od22
PQcnOY6J5KhJ/QJwZXJvx9QSV71H6n0tY7T+gTMgPOA2omBYeV7ObO18l25rUiWN
c7vqtYse0pckiFnqpCmj6gRF4WrNyLkTRFf4fhqFNBFx+RCkbwfUfSGE8VJv+eg2
gygyqq0qw/uYAscuLEkIIa/+FQ7zzucktcgI1iDojCTOH4QLmkYHjAXQhgQGK6Ko
4iDBH6wH/Kzg9e56xlrkgXQ=
-----END CERTIFICATE-----
Certificate:
    Data:
        Version: 3 (0x2)
        Serial Number:
            3c:d7:16:fb:15:99:81:4e:53:f8:80:7c:b6:7c:77:a6:06:a4:3e:ea
        Signature Algorithm: sha256WithRSAEncryption
        Issuer: C=US, ST=WA, L=Tacoma, O=Testnats, CN=Root CA
        Validity
            Not Before: May  1 19:01:43 2023 GMT
            Not After : Apr 28 19:01:43 2033 GMT
        Subject: C=US, ST=WA, L=Tacoma, O=Testnats, CN=Intermediate CA 2
        Subject Public Key Info:
            Public Key Algorithm: rsaEncryption
                Public-Key: (2048 bit)
                Modulus:
                    00:da:5f:ff:1d:f7:8d:1a:9e:9a:f3:2b:68:8f:c1:
                    0c:33:06:41:00:c9:3e:e4:1a:e1:e0:70:6a:f5:2f:
                    ad:df:f3:e9:99:ed:c5:d7:aa:93:13:37:ff:47:aa:
                    f3:c5:89:f7:b7:ad:3a:47:e5:9c:4e:9f:8c:e2:41:
                    ed:a4:7c:9d:88:32:ae:f5:8a:84:9f:0c:18:a0:b3:
                    fe:8e:dc:2a:88:6a:f5:2f:9c:86:92:fa:7b:6e:b3:
                    5a:78:67:53:0b:21:6c:0d:6c:80:1a:0e:1e:ee:06:
                    c4:d2:e7:24:c6:e5:74:be:1e:2e:17:55:2b:e5:9f:
                    0b:a0:58:cc:fe:bf:53:37:f7:dc:95:88:f4:77:a6:
                    59:b4:b8:7c:a2:4b:b7:6a:67:aa:84:dc:29:f1:f9:
                    d7:89:05:4d:0b:f3:8b:2d:52:99:57:ed:6f:11:9e:
                    af:28:a3:61:44:c2:ec:6e:7f:9f:3d:0b:dc:f7:19:
                    6d:14:8a:a5:b8:b6:29:02:34:90:b4:96:c1:cb:a7:
                    42:46:97:cf:8d:59:fd:17:b1:a6:27:a7:7b:8a:47:
                    6f:fa:03:24:1c:12:25:ee:34:d6:5c:da:45:98:23:
                    30:e1:48:c9:9a:df:37:aa:1b:70:6c:b2:0f:95:39:
                    d6:6d:3e:25:20:a8:07:2c:48:57:0c:99:52:cb:89:
                    08:41
                Exponent: 65537 (0x10001)
        X509v3 extensions:
            X509v3 Subject Key Identifier: 
                75:55:E2:8E:E7:AD:A5:DD:80:3D:C9:33:0B:2C:A2:57:77:ED:15:AC
            X509v3 Authority Key Identifier: 
                C3:12:42:BA:A9:D8:4D:E0:C3:3E:BA:D7:47:41:A6:09:2F:6D:B4:E1
            X509v3 Basic Constraints: critical
                CA:TRUE, pathlen:0
            X509v3 Key Usage: critical
                Digital Signature, Certificate Sign, CRL Sign
            X509v3 CRL Distribution Points: 
                Full Name:
                  URI:http://127.0.0.1:8888/root_crl.der
            Authority Information Access: 
                OCSP - URI:http://127.0.0.1:8888/
    Signature Algorithm: sha256WithRSAEncryption
    Signature Value:
        1f:c6:fc:1c:a1:a5:6d:76:f0:7d:28:1f:e1:15:ab:86:e0:c3:
        dd:a0:17:96:0a:c0:16:32:52:37:a4:b6:ad:24:d7:fd:3c:01:
        34:3b:a9:a2:ea:81:05:e7:06:5f:a3:af:7b:fa:b2:a9:c3:63:
        89:bb:0c:70:48:e9:73:cc:33:64:cd:b3:71:88:d1:d1:a1:5a:
        22:a6:ed:03:46:8e:9a:c0:92:37:46:9b:e5:37:78:a5:43:d5:
        46:99:1b:34:40:27:8f:95:dd:c6:9a:55:d9:60:25:8d:b8:e9:
        6e:c9:b3:ee:e8:f0:d9:11:ef:4e:ae:1e:03:70:03:60:66:fd:
        ab:b0:f4:74:b6:27:7c:7a:96:9d:86:58:5f:5c:d3:04:ab:16:
        57:12:53:51:c7:93:ca:0b:4e:67:27:2d:b7:20:79:b6:b7:8c:
        e7:c3:d9:25:5e:25:63:cf:93:f0:6e:31:c0:d5:4f:05:1c:8d:
        14:1b:6a:d5:01:b6:7a:09:6f:38:f3:e5:e2:5a:e4:e2:42:d5:
        8a:8d:de:ef:73:25:85:3c:e3:a9:ef:f7:f7:23:4f:d3:27:c2:
        3a:c6:c0:6f:2a:9b:1e:fe:fc:31:73:10:e1:08:62:98:2b:6d:
        2f:cc:ab:dd:3a:65:c2:00:7f:29:18:32:cd:8f:56:a9:1d:86:
        f1:5e:60:55
-----BEGIN CERTIFICATE-----
MIIECTCCAvGgAwIBAgIUPNcW+xWZgU5T+IB8tnx3pgakPuowDQYJKoZIhvcNAQEL
BQAwUDELMAkGA1UEBhMCVVMxCzAJBgNVBAgMAldBMQ8wDQYDVQQHDAZUYWNvbWEx
ETAPBgNVBAoMCFRlc3RuYXRzMRAwDgYDVQQDDAdSb290IENBMB4XDTIzMDUwMTE5
MDE0M1oXDTMzMDQyODE5MDE0M1owWjELMAkGA1UEBhMCVVMxCzAJBgNVBAgMAldB
MQ8wDQYDVQQHDAZUYWNvbWExETAPBgNVBAoMCFRlc3RuYXRzMRowGAYDVQQDDBFJ
bnRlcm1lZGlhdGUgQ0EgMjCCASIwDQYJKoZIhvcNAQEBBQADggEPADCCAQoCggEB
ANpf/x33jRqemvMraI/BDDMGQQDJPuQa4eBwavUvrd/z6ZntxdeqkxM3/0eq88WJ
97etOkflnE6fjOJB7aR8nYgyrvWKhJ8MGKCz/o7cKohq9S+chpL6e26zWnhnUwsh
bA1sgBoOHu4GxNLnJMbldL4eLhdVK+WfC6BYzP6/Uzf33JWI9HemWbS4fKJLt2pn
qoTcKfH514kFTQvziy1SmVftbxGeryijYUTC7G5/nz0L3PcZbRSKpbi2KQI0kLSW
wcunQkaXz41Z/Rexpiene4pHb/oDJBwSJe401lzaRZgjMOFIyZrfN6obcGyyD5U5
1m0+JSCoByxIVwyZUsuJCEECAwEAAaOB0DCBzTAdBgNVHQ4EFgQUdVXijuetpd2A
PckzCyyiV3ftFawwHwYDVR0jBBgwFoAUwxJCuqnYTeDDPrrXR0GmCS9ttOEwEgYD
VR0TAQH/BAgwBgEB/wIBADAOBgNVHQ8BAf8EBAMCAYYwMwYDVR0fBCwwKjAooCag
JIYiaHR0cDovLzEyNy4wLjAuMTo4ODg4L3Jvb3RfY3JsLmRlcjAyBggrBgEFBQcB
AQQmMCQwIgYIKwYBBQUHMAGGFmh0dHA6Ly8xMjcuMC4wLjE6ODg4OC8wDQYJKoZI
hvcNAQELBQADggEBAB/G/ByhpW128H0oH+EVq4bgw92gF5YKwBYyUjektq0k1/08
ATQ7qaLqgQXnBl+jr3v6sqnDY4m7DHBI6XPMM2TNs3GI0dGhWiKm7QNGjprAkjdG
m+U3eKVD1UaZGzRAJ4+V3caaVdlgJY246W7Js+7o8NkR706uHgNwA2Bm/auw9HS2
J3x6lp2GWF9c0wSrFlcSU1HHk8oLTmcnLbcgeba3jOfD2SVeJWPPk/BuMcDVTwUc
jRQbatUBtnoJbzjz5eJa5OJC1YqN3u9zJYU846nv9/cjT9MnwjrGwG8qmx7+/DFz
EOEIYpgrbS/Mq906ZcIAfykYMs2PVqkdhvFeYFU=
-----END CERTIFICATE-----
