Certificate:
    Data:
        Version: 3 (0x2)
        Serial Number:
            3a:d5:76:e0:a4:4b:67:ba:da:f2:9b:15:09:4c:ff:54:58:1d:e9:92
        Signature Algorithm: sha256WithRSAEncryption
        Issuer: C=US, ST=WA, L=Tacoma, O=Testnats, CN=Intermediate CA 2
        Validity
            Not Before: May  1 19:40:31 2023 GMT
            Not After : Apr 28 19:40:31 2033 GMT
        Subject: C=US, ST=WA, L=Tacoma, O=Testnats, CN=UserB1
        Subject Public Key Info:
            Public Key Algorithm: rsaEncryption
                Public-Key: (2048 bit)
                Modulus:
                    00:ba:19:65:ab:3f:2e:f2:7a:93:ea:06:eb:a2:9a:
                    c5:b9:20:66:2e:74:1b:94:5a:43:1c:8c:22:72:00:
                    79:2d:20:18:e3:4a:35:a6:df:8a:58:33:73:2c:28:
                    20:e7:d9:85:ec:f5:81:ae:44:44:55:66:65:d6:b5:
                    78:71:c4:d8:c2:7b:4c:2d:8b:18:b6:86:fc:50:c0:
                    7e:b6:6e:f7:76:c0:30:6c:67:09:53:2d:87:98:d6:
                    d4:d8:b3:a9:80:45:93:7f:33:3f:41:2a:70:f3:e1:
                    df:a0:85:64:4b:25:e4:91:e9:e6:c8:c3:a0:3e:b3:
                    ef:97:1f:ae:9d:44:84:35:26:26:4e:0c:7a:1d:c7:
                    ef:b6:46:8d:82:b8:b0:18:fb:25:77:04:20:8c:da:
                    af:fa:9e:a2:b0:67:b6:a6:5b:d7:95:a5:3c:3e:76:
                    b4:37:4a:48:98:34:96:9d:d2:ff:36:6a:f4:2a:cd:
                    85:b3:e3:71:74:0f:e0:25:f1:06:cb:9d:53:fc:b4:
                    5d:c4:8d:7a:0b:bd:16:ee:5c:58:21:ad:49:34:9f:
                    9e:1b:6d:f6:47:52:1f:a0:74:00:fe:3c:4d:5f:4c:
                    5a:23:4a:d5:4c:ff:3f:42:5d:85:df:f6:3b:32:c4:
                    ca:4b:d0:9d:4b:9e:86:a6:64:44:b8:ae:24:1a:f4:
                    66:6b
                Exponent: 65537 (0x10001)
        X509v3 extensions:
            X509v3 Subject Key Identifier: 
                EC:AB:7B:4D:CD:62:D6:89:63:69:FE:97:34:5A:96:58:A5:94:A6:D9
            X509v3 Authority Key Identifier: 
                75:55:E2:8E:E7:AD:A5:DD:80:3D:C9:33:0B:2C:A2:57:77:ED:15:AC
            X509v3 Basic Constraints: critical
                CA:FALSE
            Netscape Cert Type: 
                SSL Client, S/MIME
            X509v3 Key Usage: critical
                Digital Signature, Non Repudiation, Key Encipherment
            X509v3 Extended Key Usage: 
                TLS Web Client Authentication, E-mail Protection
            X509v3 CRL Distribution Points: 
                Full Name:
                  URI:http://127.0.0.1:28888/intermediate2_crl.der
            Authority Information Access: 
                OCSP - URI:http://127.0.0.1:28888/
            X509v3 Subject Alternative Name: 
                email:UserB1@user.net
    Signature Algorithm: sha256WithRSAEncryption
    Signature Value:
        a8:78:fa:c2:44:e0:b9:c7:af:d5:cc:b6:b4:2b:3d:74:ae:b8:
        d1:e1:22:d0:63:7d:77:97:db:97:2f:f1:f0:ce:e3:9e:5e:e1:
        2a:19:54:00:38:7b:30:0b:8b:95:3a:4b:5d:83:08:80:fe:29:
        85:72:fd:c9:80:6b:c3:fd:a3:00:4f:b5:f2:34:a3:42:54:77:
        77:70:43:40:fe:1f:7a:b7:7f:55:c3:c0:e2:44:d1:95:fb:4c:
        eb:f8:39:dd:b6:3d:07:27:39:8e:89:e4:a8:49:fd:02:70:65:
        72:6f:c7:d4:12:57:bd:47:ea:7d:2d:63:b4:fe:81:33:20:3c:
        e0:36:a2:60:58:79:5e:ce:6c:ed:7c:97:6e:6b:52:25:8d:73:
        bb:ea:b5:8b:1e:d2:97:24:88:59:ea:a4:29:a3:ea:04:45:e1:
        6a:cd:c8:b9:13:44:57:f8:7e:1a:85:34:11:71:f9:10:a4:6f:
        07:d4:7d:21:84:f1:52:6f:f9:e8:36:83:28:32:aa:ad:2a:c3:
        fb:98:02:c7:2e:2c:49:08:21:af:fe:15:0e:f3:ce:e7:24:b5:
        c8:08:d6:20:e8:8c:24:ce:1f:84:0b:9a:46:07:8c:05:d0:86:
        04:06:2b:a2:a8:e2:20:c1:1f:ac:07:fc:ac:e0:f5:ee:7a:c6:
        5a:e4:81:74
-----BEGIN CERTIFICATE-----
MIIEXTCCA0WgAwIBAgIUOtV24KRLZ7ra8psVCUz/VFgd6ZIwDQYJKoZIhvcNAQEL
BQAwWjELMAkGA1UEBhMCVVMxCzAJBgNVBAgMAldBMQ8wDQYDVQQHDAZUYWNvbWEx
ETAPBgNVBAoMCFRlc3RuYXRzMRowGAYDVQQDDBFJbnRlcm1lZGlhdGUgQ0EgMjAe
Fw0yMzA1MDExOTQwMzFaFw0zMzA0MjgxOTQwMzFaME8xCzAJBgNVBAYTAlVTMQsw
CQYDVQQIDAJXQTEPMA0GA1UEBwwGVGFjb21hMREwDwYDVQQKDAhUZXN0bmF0czEP
MA0GA1UEAwwGVXNlckIxMIIBIjANBgkqhkiG9w0BAQEFAAOCAQ8AMIIBCgKCAQEA
uhllqz8u8nqT6gbroprFuSBmLnQblFpDHIwicgB5LSAY40o1pt+KWDNzLCgg59mF
7PWBrkREVWZl1rV4ccTYwntMLYsYtob8UMB+tm73dsAwbGcJUy2HmNbU2LOpgEWT
fzM/QSpw8+HfoIVkSyXkkenmyMOgPrPvlx+unUSENSYmTgx6HcfvtkaNgriwGPsl
dwQgjNqv+p6isGe2plvXlaU8Pna0N0pImDSWndL/Nmr0Ks2Fs+NxdA/gJfEGy51T
/LRdxI16C70W7lxYIa1JNJ+eG232R1IfoHQA/jxNX0xaI0rVTP8/Ql2F3/Y7MsTK
S9CdS56GpmREuK4kGvRmawIDAQABo4IBJDCCASAwHQYDVR0OBBYEFOyre03NYtaJ
Y2n+lzRallillKbZMB8GA1UdIwQYMBaAFHVV4o7nraXdgD3JMwssold37RWsMAwG
A1UdEwEB/wQCMAAwEQYJYIZIAYb4QgEBBAQDAgWgMA4GA1UdDwEB/wQEAwIF4DAd
BgNVHSUEFjAUBggrBgEFBQcDAgYIKwYBBQUHAwQwPQYDVR0fBDYwNDAyoDCgLoYs
aHR0cDovLzEyNy4wLjAuMToyODg4OC9pbnRlcm1lZGlhdGUyX2NybC5kZXIwMwYI
KwYBBQUHAQEEJzAlMCMGCCsGAQUFBzABhhdodHRwOi8vMTI3LjAuMC4xOjI4ODg4
LzAaBgNVHREEEzARgQ9Vc2VyQjFAdXNlci5uZXQwDQYJKoZIhvcNAQELBQADggEB
AKh4+sJE4LnHr9XMtrQrPXSuuNHhItBjfXeX25cv8fDO455e4SoZVAA4ezALi5U6
S12DCID+KYVy/cmAa8P9owBPtfI0o0JUd3dwQ0D+H3q3f1XDwOJE0ZX7TOv4Od22
PQcnOY6J5KhJ/QJwZXJvx9QSV71H6n0tY7T+gTMgPOA2omBYeV7ObO18l25rUiWN
c7vqtYse0pckiFnqpCmj6gRF4WrNyLkTRFf4fhqFNBFx+RCkbwfUfSGE8VJv+eg2
gygyqq0qw/uYAscuLEkIIa/+FQ7zzucktcgI1iDojCTOH4QLmkYHjAXQhgQGK6Ko
4iDBH6wH/Kzg9e56xlrkgXQ=
-----END CERTIFICATE-----
