Certificate:
    Data:
        Version: 3 (0x2)
        Serial Number:
            55:57:db:45:43:06:ce:52:63:59:b9:5a:26:78:fd:0d:94:68:95:9c
        Signature Algorithm: sha256WithRSAEncryption
        Issuer: C=US, ST=WA, L=Tacoma, O=Testnats, CN=Root CA
        Validity
            Not Before: May  1 19:01:15 2023 GMT
            Not After : Apr 28 19:01:15 2033 GMT
        Subject: C=US, ST=WA, L=Tacoma, O=Testnats, CN=Intermediate CA 1
        Subject Public Key Info:
            Public Key Algorithm: rsaEncryption
                Public-Key: (2048 bit)
                Modulus:
                    00:bc:c6:84:2d:c2:ab:5d:05:d7:65:a8:e2:15:74:
                    d8:f2:f1:55:11:45:93:96:4c:a5:dc:cb:44:f5:f4:
                    14:7e:46:02:59:e8:ae:78:59:69:21:58:f7:16:38:
                    b9:c2:c2:60:d8:76:ab:a1:39:ba:0b:a3:03:17:e4:
                    a1:cb:5d:1a:0c:62:71:24:64:b0:00:f0:6f:4c:af:
                    08:62:8c:dc:4f:e0:d7:d4:55:2c:db:36:fc:a9:aa:
                    d7:58:27:e4:99:cb:dc:29:d9:ea:35:16:cb:2e:be:
                    04:b2:82:58:f4:e5:5c:07:db:12:8e:e3:3c:9a:5e:
                    90:4b:c5:a3:d4:21:96:5f:e1:8f:f7:cb:9e:db:e0:
                    10:a0:6c:a2:1e:30:17:6c:32:9f:7b:43:a4:9f:d3:
                    6b:33:1b:18:cd:a4:ad:33:48:a3:98:b0:2b:c8:22:
                    74:17:71:d8:f1:64:21:55:e1:33:bc:7f:74:5f:a5:
                    a6:a2:9b:58:2f:db:ed:c7:c1:e5:36:2e:86:26:ad:
                    c6:fe:b8:00:85:6e:7c:ed:fd:4a:c6:a0:d9:b2:3f:
                    4e:bd:fa:08:52:c8:5d:31:13:86:bd:3f:ec:7a:d8:
                    3a:15:e2:71:af:ec:00:88:7e:a6:e8:e1:9d:ab:57:
                    5a:8a:1f:f8:e2:4d:29:58:53:79:25:f0:9e:d9:18:
                    40:27
                Exponent: 65537 (0x10001)
        X509v3 extensions:
            X509v3 Subject Key Identifier: 
                B5:91:6E:4F:64:B7:16:84:76:F9:B4:BE:99:CE:60:95:98:1A:8E:9D
            X509v3 Authority Key Identifier: 
                C3:12:42:BA:A9:D8:4D:E0:C3:3E:BA:D7:47:41:A6:09:2F:6D:B4:E1
            X509v3 Basic Constraints: critical
                CA:TRUE, pathlen:0
            X509v3 Key Usage: critical
                Digital Signature, Certificate Sign, CRL Sign
            X509v3 CRL Distribution Points: 
                Full Name:
                  URI:http://127.0.0.1:8888/root_crl.der
            Authority Information Access: 
                OCSP - URI:http://127.0.0.1:8888/
    Signature Algorithm: sha256WithRSAEncryption
    Signature Value:
        b1:48:16:3b:d7:91:d0:4d:54:09:cb:ab:c7:41:4f:35:12:8b:
        a6:e8:84:11:49:a9:04:91:41:25:7c:02:38:b2:19:a0:e9:2e:
        d5:d6:7a:26:c1:1a:f8:f1:c6:51:92:68:af:c8:6e:5b:df:28:
        40:b8:99:94:d5:43:7d:e3:68:75:94:26:56:11:21:9e:50:b3:
        36:7b:f8:5f:33:76:64:71:04:26:2b:bb:2c:83:33:89:ba:74:
        c1:e9:9d:eb:c0:86:4b:4d:6f:f8:4d:55:5a:3d:f6:55:95:33:
        0f:b8:f0:53:2b:93:a6:da:8d:5c:1a:e8:30:22:55:67:44:6e:
        17:c4:57:05:0d:ce:fc:61:dd:b1:3c:b0:66:55:f4:42:d0:ce:
        94:7d:6a:82:bd:32:ed:2f:21:ff:c7:70:ff:48:9d:10:4a:71:
        be:a8:37:e5:0f:f4:79:1e:7d:a2:f1:6a:6b:2c:e8:03:20:ce:
        80:94:d2:38:80:bc:7e:56:c5:77:62:94:c0:b7:40:11:4d:ba:
        98:4b:2e:52:03:66:68:36:ab:d1:0f:3e:b5:92:a3:95:9d:a4:
        ea:d3:8a:14:41:6d:86:24:89:aa:d7:29:20:c8:52:d5:bf:8d:
        3b:09:52:dd:89:8c:2c:85:40:b5:9f:cc:47:63:ca:3a:e0:c9:
        91:5c:43:a9
-----BEGIN CERTIFICATE-----
MIIECTCCAvGgAwIBAgIUVVfbRUMGzlJjWblaJnj9DZRolZwwDQYJKoZIhvcNAQEL
BQAwUDELMAkGA1UEBhMCVVMxCzAJBgNVBAgMAldBMQ8wDQYDVQQHDAZUYWNvbWEx
ETAPBgNVBAoMCFRlc3RuYXRzMRAwDgYDVQQDDAdSb290IENBMB4XDTIzMDUwMTE5
MDExNVoXDTMzMDQyODE5MDExNVowWjELMAkGA1UEBhMCVVMxCzAJBgNVBAgMAldB
MQ8wDQYDVQQHDAZUYWNvbWExETAPBgNVBAoMCFRlc3RuYXRzMRowGAYDVQQDDBFJ
bnRlcm1lZGlhdGUgQ0EgMTCCASIwDQYJKoZIhvcNAQEBBQADggEPADCCAQoCggEB
ALzGhC3Cq10F12Wo4hV02PLxVRFFk5ZMpdzLRPX0FH5GAlnornhZaSFY9xY4ucLC
YNh2q6E5ugujAxfkoctdGgxicSRksADwb0yvCGKM3E/g19RVLNs2/Kmq11gn5JnL
3CnZ6jUWyy6+BLKCWPTlXAfbEo7jPJpekEvFo9Qhll/hj/fLntvgEKBsoh4wF2wy
n3tDpJ/TazMbGM2krTNIo5iwK8gidBdx2PFkIVXhM7x/dF+lpqKbWC/b7cfB5TYu
hiatxv64AIVufO39Ssag2bI/Tr36CFLIXTEThr0/7HrYOhXica/sAIh+pujhnatX
Woof+OJNKVhTeSXwntkYQCcCAwEAAaOB0DCBzTAdBgNVHQ4EFgQUtZFuT2S3FoR2
+bS+mc5glZgajp0wHwYDVR0jBBgwFoAUwxJCuqnYTeDDPrrXR0GmCS9ttOEwEgYD
VR0TAQH/BAgwBgEB/wIBADAOBgNVHQ8BAf8EBAMCAYYwMwYDVR0fBCwwKjAooCag
JIYiaHR0cDovLzEyNy4wLjAuMTo4ODg4L3Jvb3RfY3JsLmRlcjAyBggrBgEFBQcB
AQQmMCQwIgYIKwYBBQUHMAGGFmh0dHA6Ly8xMjcuMC4wLjE6ODg4OC8wDQYJKoZI
hvcNAQELBQADggEBALFIFjvXkdBNVAnLq8dBTzUSi6bohBFJqQSRQSV8AjiyGaDp
LtXWeibBGvjxxlGSaK/IblvfKEC4mZTVQ33jaHWUJlYRIZ5QszZ7+F8zdmRxBCYr
uyyDM4m6dMHpnevAhktNb/hNVVo99lWVMw+48FMrk6bajVwa6DAiVWdEbhfEVwUN
zvxh3bE8sGZV9ELQzpR9aoK9Mu0vIf/HcP9InRBKcb6oN+UP9HkefaLxamss6AMg
zoCU0jiAvH5WxXdilMC3QBFNuphLLlIDZmg2q9EPPrWSo5WdpOrTihRBbYYkiarX
KSDIUtW/jTsJUt2JjCyFQLWfzEdjyjrgyZFcQ6k=
-----END CERTIFICATE-----
Certificate:
    Data:
        Version: 3 (0x2)
        Serial Number:
            27:5e:cf:7e:be:aa:02:b9:a9:c7:42:30:43:fe:0e:80:05:91:dd:0b
        Signature Algorithm: sha256WithRSAEncryption
        Issuer: C=US, ST=WA, L=Tacoma, O=Testnats, CN=Root CA
        Validity
            Not Before: May  1 18:57:57 2023 GMT
            Not After : Apr 28 18:57:57 2033 GMT
        Subject: C=US, ST=WA, L=Tacoma, O=Testnats, CN=Root CA
        Subject Public Key Info:
            Public Key Algorithm: rsaEncryption
                Public-Key: (2048 bit)
                Modulus:
                    00:e2:21:6b:9f:ef:48:b9:de:22:fb:5b:37:09:68:
                    c7:b5:92:57:52:24:ef:85:00:e8:71:85:4d:0f:5b:
                    8c:c6:e7:4f:19:f6:e3:0b:70:a3:41:7e:71:d4:0f:
                    d6:fd:f2:1a:ca:aa:57:91:76:9a:b2:82:62:60:ce:
                    f2:00:2e:d4:bc:58:d3:60:30:42:a6:28:b2:50:7b:
                    58:01:9f:fb:0a:65:b0:40:d6:7c:e2:b7:da:8d:19:
                    d9:a5:51:d2:46:7e:14:46:ab:fa:df:ce:fe:84:08:
                    98:63:46:1d:4d:8a:77:57:67:da:16:8b:32:0c:7c:
                    41:e2:a5:ec:ee:7d:20:28:eb:03:5f:f5:e6:05:d8:
                    8b:96:78:6f:ae:29:9a:50:f7:dc:96:31:86:81:b1:
                    78:e8:eb:ef:5d:bb:ed:42:ec:94:c6:54:46:ec:05:
                    6f:1b:0c:36:24:c6:a8:06:7e:5c:56:b8:43:3b:11:
                    f4:06:0a:05:15:19:3b:1f:c8:67:31:eb:3b:5b:2a:
                    15:0a:7b:f9:6b:e4:10:ee:44:be:19:d8:db:44:01:
                    fa:3a:56:f5:6c:4e:f3:60:aa:e4:cd:b2:ad:77:07:
                    45:ef:f1:d7:f5:fa:52:84:5c:03:4e:72:e0:a9:91:
                    c5:d9:d6:0a:84:33:98:31:f2:02:5b:3f:10:15:65:
                    76:d7
                Exponent: 65537 (0x10001)
        X509v3 extensions:
            X509v3 Subject Key Identifier: 
                C3:12:42:BA:A9:D8:4D:E0:C3:3E:BA:D7:47:41:A6:09:2F:6D:B4:E1
            X509v3 Authority Key Identifier: 
                C3:12:42:BA:A9:D8:4D:E0:C3:3E:BA:D7:47:41:A6:09:2F:6D:B4:E1
            X509v3 Basic Constraints: critical
                CA:TRUE
            X509v3 Key Usage: critical
                Digital Signature, Certificate Sign, CRL Sign
            X509v3 CRL Distribution Points: 
                Full Name:
                  URI:http://127.0.0.1:8888/root_crl.der
    Signature Algorithm: sha256WithRSAEncryption
    Signature Value:
        22:79:1a:b9:5d:fa:f5:c9:a3:88:22:c4:92:e6:64:6d:ce:a5:
        ae:2e:69:48:6a:9e:d5:11:c5:bb:b0:de:38:1b:5b:04:85:60:
        d6:64:14:ed:c2:62:02:7d:ad:d2:17:ad:ef:40:27:2b:50:59:
        4a:ff:88:c6:b3:16:5c:55:30:d9:23:bd:4f:0f:34:b7:7b:ed:
        7a:e1:f3:39:35:e9:18:6d:70:b1:2b:2a:e2:e5:cd:a1:54:8a:
        f9:f4:95:81:29:84:3f:95:2f:48:e0:35:3e:d9:cb:84:4d:3d:
        3e:3c:0e:8d:24:42:5f:19:e6:06:a5:87:ae:ba:af:07:02:e7:
        6a:83:0a:89:d4:a4:38:ce:05:6e:f6:15:f1:7a:53:bb:50:28:
        89:51:3f:f2:54:f1:d3:c4:28:07:a1:3e:55:e5:84:b8:df:58:
        af:c3:e7:81:c2:08:9c:35:e4:c4:86:75:a8:17:99:2c:a6:7f:
        46:30:9b:23:55:c5:d8:e2:6a:e4:08:a1:8b:dc:bc:5b:86:95:
        4a:79:fe:a6:93:3d:1a:5b:10:9a:2f:6a:45:2f:5d:c9:fa:95:
        2e:66:eb:52:df:88:a7:5f:42:8f:5f:46:07:79:8b:a7:49:82:
        d3:81:c6:3e:c2:5a:15:c4:83:69:30:49:4d:6e:ea:05:1e:d8:
        dc:29:ac:17
-----BEGIN CERTIFICATE-----
MIIDyDCCArCgAwIBAgIUJ17Pfr6qArmpx0IwQ/4OgAWR3QswDQYJKoZIhvcNAQEL
BQAwUDELMAkGA1UEBhMCVVMxCzAJBgNVBAgMAldBMQ8wDQYDVQQHDAZUYWNvbWEx
ETAPBgNVBAoMCFRlc3RuYXRzMRAwDgYDVQQDDAdSb290IENBMB4XDTIzMDUwMTE4
NTc1N1oXDTMzMDQyODE4NTc1N1owUDELMAkGA1UEBhMCVVMxCzAJBgNVBAgMAldB
MQ8wDQYDVQQHDAZUYWNvbWExETAPBgNVBAoMCFRlc3RuYXRzMRAwDgYDVQQDDAdS
b290IENBMIIBIjANBgkqhkiG9w0BAQEFAAOCAQ8AMIIBCgKCAQEA4iFrn+9Iud4i
+1s3CWjHtZJXUiTvhQDocYVND1uMxudPGfbjC3CjQX5x1A/W/fIayqpXkXaasoJi
YM7yAC7UvFjTYDBCpiiyUHtYAZ/7CmWwQNZ84rfajRnZpVHSRn4URqv6387+hAiY
Y0YdTYp3V2faFosyDHxB4qXs7n0gKOsDX/XmBdiLlnhvrimaUPfcljGGgbF46Ovv
XbvtQuyUxlRG7AVvGww2JMaoBn5cVrhDOxH0BgoFFRk7H8hnMes7WyoVCnv5a+QQ
7kS+GdjbRAH6Olb1bE7zYKrkzbKtdwdF7/HX9fpShFwDTnLgqZHF2dYKhDOYMfIC
Wz8QFWV21wIDAQABo4GZMIGWMB0GA1UdDgQWBBTDEkK6qdhN4MM+utdHQaYJL220
4TAfBgNVHSMEGDAWgBTDEkK6qdhN4MM+utdHQaYJL2204TAPBgNVHRMBAf8EBTAD
AQH/MA4GA1UdDwEB/wQEAwIBhjAzBgNVHR8ELDAqMCigJqAkhiJodHRwOi8vMTI3
LjAuMC4xOjg4ODgvcm9vdF9jcmwuZGVyMA0GCSqGSIb3DQEBCwUAA4IBAQAieRq5
Xfr1yaOIIsSS5mRtzqWuLmlIap7VEcW7sN44G1sEhWDWZBTtwmICfa3SF63vQCcr
UFlK/4jGsxZcVTDZI71PDzS3e+164fM5NekYbXCxKyri5c2hVIr59JWBKYQ/lS9I
4DU+2cuETT0+PA6NJEJfGeYGpYeuuq8HAudqgwqJ1KQ4zgVu9hXxelO7UCiJUT/y
VPHTxCgHoT5V5YS431ivw+eBwgicNeTEhnWoF5kspn9GMJsjVcXY4mrkCKGL3Lxb
hpVKef6mkz0aWxCaL2pFL13J+pUuZutS34inX0KPX0YHeYunSYLTgcY+wloVxINp
MElNbuoFHtjcKawX
-----END CERTIFICATE-----
