Certificate:
    Data:
        Version: 3 (0x2)
        Serial Number:
            7c:43:65:c7:cf:27:e3:83:ae:2f:60:ac:03:e5:f2:b6:22:88:bc:a2
        Signature Algorithm: sha256WithRSAEncryption
        Issuer: C=US, ST=WA, L=Tacoma, O=Testnats, CN=Intermediate CA 1
        Validity
            Not Before: May  1 19:37:36 2023 GMT
            Not After : Apr 28 19:37:36 2033 GMT
        Subject: C=US, ST=WA, L=Tacoma, O=Testnats, CN=System
        Subject Public Key Info:
            Public Key Algorithm: rsaEncryption
                Public-Key: (2048 bit)
                Modulus:
                    00:a3:21:2f:74:34:c1:1b:41:90:b6:4e:41:72:e0:
                    3f:9e:49:94:55:ec:02:4c:dd:14:80:b8:3d:c6:c7:
                    47:bb:a5:59:c3:35:86:89:17:08:ce:fe:71:e6:2f:
                    9c:c1:db:d2:7e:14:24:da:61:30:3a:e7:6e:b1:e3:
                    21:38:81:bc:47:df:b2:7f:1f:60:be:3d:c5:ed:76:
                    03:94:e3:c4:b3:3e:bf:f8:43:ba:c2:54:bc:bb:66:
                    59:98:a3:f9:aa:e3:10:e8:c3:88:dc:1a:18:6f:dd:
                    90:eb:6f:a3:4b:d4:af:34:5c:43:20:d5:5b:e7:98:
                    a5:7c:7b:a9:15:86:bb:28:bf:ba:e0:bb:f7:1c:08:
                    c4:26:eb:c1:ac:05:1f:74:4f:05:11:57:e0:12:77:
                    17:9e:89:dd:a5:38:ee:cf:cf:67:be:0c:5e:6a:4a:
                    74:61:21:79:8e:c3:28:f1:e2:06:00:2d:ea:3a:6d:
                    e2:a6:25:fd:2d:8b:f5:82:36:91:8a:21:f0:6a:93:
                    19:d6:76:08:fd:cd:ee:90:a9:a9:cf:99:30:71:46:
                    57:ea:fb:c5:65:4f:7c:86:5c:9d:d7:b4:c3:27:3c:
                    eb:27:dd:bc:55:76:1f:25:0d:cb:6f:43:9a:9f:ba:
                    de:54:c1:90:03:9e:e5:0d:d9:cd:84:d4:58:74:63:
                    be:59
                Exponent: 65537 (0x10001)
        X509v3 extensions:
            X509v3 Subject Key Identifier: 
                A0:FA:B5:24:42:70:DF:E1:BB:E6:10:62:BE:FE:F5:81:13:2F:31:9B
            X509v3 Authority Key Identifier: 
                B5:91:6E:4F:64:B7:16:84:76:F9:B4:BE:99:CE:60:95:98:1A:8E:9D
            X509v3 Basic Constraints: critical
                CA:FALSE
            Netscape Cert Type: 
                SSL Client, S/MIME
            X509v3 Key Usage: critical
                Digital Signature, Non Repudiation, Key Encipherment
            X509v3 Extended Key Usage: 
                TLS Web Client Authentication, E-mail Protection
            X509v3 CRL Distribution Points: 
                Full Name:
                  URI:http://127.0.0.1:18888/intermediate1_crl.der
            Authority Information Access: 
                OCSP - URI:http://127.0.0.1:18888/
            X509v3 Subject Alternative Name: 
                email:System@user.net
    Signature Algorithm: sha256WithRSAEncryption
    Signature Value:
        ad:00:40:7a:34:ad:07:e9:ed:fa:8f:1f:48:08:79:81:a8:3c:
        90:da:05:95:74:05:51:9c:17:a8:5c:03:09:c8:f8:2c:09:64:
        e2:7c:fc:69:e1:c0:5d:8a:d9:f0:f3:e4:cd:2c:5e:43:77:71:
        f8:58:20:88:8f:63:e1:b4:86:db:7a:54:df:ce:be:01:e2:55:
        a2:70:a8:89:64:cf:2a:13:78:91:de:83:ed:d6:74:24:00:ca:
        3d:67:4a:cd:e3:82:b9:56:a3:3a:b4:80:b2:ac:61:e9:75:6c:
        30:1c:81:96:2f:f0:99:b2:7b:73:b5:45:b0:3c:20:ed:54:b3:
        87:37:9f:5e:07:c4:8a:72:94:53:4e:a2:a0:83:bc:fb:61:59:
        ff:8c:91:1c:db:ad:7a:e0:12:e3:a3:b1:91:97:d4:c7:ed:02:
        6e:7e:01:d8:d6:d5:6d:81:a2:32:ca:8c:6d:32:91:40:97:e5:
        a1:ad:22:7d:af:ab:ce:68:0b:69:52:53:8a:80:dd:f3:9f:a8:
        1f:34:a7:1f:37:58:cb:6c:da:54:cf:cc:0b:67:95:e9:6e:30:
        a4:ce:12:c4:5a:e0:d4:92:fb:0b:67:a8:51:ad:dc:4a:d0:ad:
        fb:92:77:85:a5:9d:84:ff:99:50:ca:15:4f:d4:30:c8:85:ca:
        95:a0:88:62
-----BEGIN CERTIFICATE-----
MIIEXTCCA0WgAwIBAgIUfENlx88n44OuL2CsA+XytiKIvKIwDQYJKoZIhvcNAQEL
BQAwWjELMAkGA1UEBhMCVVMxCzAJBgNVBAgMAldBMQ8wDQYDVQQHDAZUYWNvbWEx
ETAPBgNVBAoMCFRlc3RuYXRzMRowGAYDVQQDDBFJbnRlcm1lZGlhdGUgQ0EgMTAe
Fw0yMzA1MDExOTM3MzZaFw0zMzA0MjgxOTM3MzZaME8xCzAJBgNVBAYTAlVTMQsw
CQYDVQQIDAJXQTEPMA0GA1UEBwwGVGFjb21hMREwDwYDVQQKDAhUZXN0bmF0czEP
MA0GA1UEAwwGU3lzdGVtMIIBIjANBgkqhkiG9w0BAQEFAAOCAQ8AMIIBCgKCAQEA
oyEvdDTBG0GQtk5BcuA/nkmUVewCTN0UgLg9xsdHu6VZwzWGiRcIzv5x5i+cwdvS
fhQk2mEwOuduseMhOIG8R9+yfx9gvj3F7XYDlOPEsz6/+EO6wlS8u2ZZmKP5quMQ
6MOI3BoYb92Q62+jS9SvNFxDINVb55ilfHupFYa7KL+64Lv3HAjEJuvBrAUfdE8F
EVfgEncXnondpTjuz89nvgxeakp0YSF5jsMo8eIGAC3qOm3ipiX9LYv1gjaRiiHw
apMZ1nYI/c3ukKmpz5kwcUZX6vvFZU98hlyd17TDJzzrJ928VXYfJQ3Lb0Oan7re
VMGQA57lDdnNhNRYdGO+WQIDAQABo4IBJDCCASAwHQYDVR0OBBYEFKD6tSRCcN/h
u+YQYr7+9YETLzGbMB8GA1UdIwQYMBaAFLWRbk9ktxaEdvm0vpnOYJWYGo6dMAwG
A1UdEwEB/wQCMAAwEQYJYIZIAYb4QgEBBAQDAgWgMA4GA1UdDwEB/wQEAwIF4DAd
BgNVHSUEFjAUBggrBgEFBQcDAgYIKwYBBQUHAwQwPQYDVR0fBDYwNDAyoDCgLoYs
aHR0cDovLzEyNy4wLjAuMToxODg4OC9pbnRlcm1lZGlhdGUxX2NybC5kZXIwMwYI
KwYBBQUHAQEEJzAlMCMGCCsGAQUFBzABhhdodHRwOi8vMTI3LjAuMC4xOjE4ODg4
LzAaBgNVHREEEzARgQ9TeXN0ZW1AdXNlci5uZXQwDQYJKoZIhvcNAQELBQADggEB
AK0AQHo0rQfp7fqPH0gIeYGoPJDaBZV0BVGcF6hcAwnI+CwJZOJ8/GnhwF2K2fDz
5M0sXkN3cfhYIIiPY+G0htt6VN/OvgHiVaJwqIlkzyoTeJHeg+3WdCQAyj1nSs3j
grlWozq0gLKsYel1bDAcgZYv8Jmye3O1RbA8IO1Us4c3n14HxIpylFNOoqCDvPth
Wf+MkRzbrXrgEuOjsZGX1MftAm5+AdjW1W2BojLKjG0ykUCX5aGtIn2vq85oC2lS
U4qA3fOfqB80px83WMts2lTPzAtnleluMKTOEsRa4NSS+wtnqFGt3ErQrfuSd4Wl
nYT/mVDKFU/UMMiFypWgiGI=
-----END CERTIFICATE-----
