Certificate:
    Data:
        Version: 3 (0x2)
        Serial Number:
            7a:3d:fa:5b:9b:df:69:55:6e:9c:53:4c:fc:86:75:65:bc:78:4c:24
        Signature Algorithm: sha256WithRSAEncryption
        Issuer: C=US, ST=WA, L=Tacoma, O=Testnats, CN=Intermediate CA 1
        Validity
            Not Before: May  1 19:37:36 2023 GMT
            Not After : Apr 28 19:37:36 2033 GMT
        Subject: C=US, ST=WA, L=Tacoma, O=Testnats, CN=UserA2
        Subject Public Key Info:
            Public Key Algorithm: rsaEncryption
                Public-Key: (2048 bit)
                Modulus:
                    00:a6:7c:40:80:2b:44:00:33:11:c6:c2:9d:67:3e:
                    87:8e:7e:40:d3:f5:d3:27:b6:7d:18:3c:c0:86:ac:
                    96:3a:ad:d8:c3:cb:ab:72:5e:4c:b7:24:45:da:c7:
                    a8:cc:74:b8:21:75:62:9e:81:88:96:54:6e:db:f9:
                    8c:2f:4c:97:0d:ce:21:42:2f:92:57:7f:34:2b:02:
                    43:4c:22:ae:14:ca:fc:b2:2c:d0:67:0e:52:e0:6d:
                    61:96:a6:3b:cc:4f:6a:d6:ef:45:9c:74:92:25:6c:
                    0a:10:62:1b:22:2b:11:6b:d1:52:4d:da:8d:c3:4a:
                    e6:74:a7:1b:1e:ef:8a:f4:96:88:02:0d:b7:57:35:
                    9f:a3:ff:a2:2c:b7:0e:27:4e:79:2f:cf:0c:f1:91:
                    0e:bf:01:d7:a2:71:2c:b7:0e:4b:7e:50:91:89:71:
                    c2:17:aa:cb:29:80:9e:d7:2b:fa:33:41:e8:82:d1:
                    3a:97:3d:6c:de:66:9b:b4:ea:1a:eb:94:be:6e:c0:
                    66:e8:77:3d:72:d5:5c:a5:e8:ab:3b:33:f4:b3:c2:
                    26:49:bc:08:55:cf:16:b6:12:22:91:fe:c1:5a:b2:
                    d7:77:e3:f4:47:bc:c4:77:6b:f5:7f:c3:e8:48:99:
                    b9:a8:ea:b1:ae:e6:cc:3a:12:fa:4d:2f:5f:0f:a8:
                    fd:8d
                Exponent: 65537 (0x10001)
        X509v3 extensions:
            X509v3 Subject Key Identifier: 
                B8:8E:4F:76:F1:F8:3C:A5:23:C5:8F:A1:2E:64:3E:48:53:02:CD:6B
            X509v3 Authority Key Identifier: 
                B5:91:6E:4F:64:B7:16:84:76:F9:B4:BE:99:CE:60:95:98:1A:8E:9D
            X509v3 Basic Constraints: critical
                CA:FALSE
            Netscape Cert Type: 
                SSL Client, S/MIME
            X509v3 Key Usage: critical
                Digital Signature, Non Repudiation, Key Encipherment
            X509v3 Extended Key Usage: 
                TLS Web Client Authentication, E-mail Protection
            X509v3 CRL Distribution Points: 
                Full Name:
                  URI:http://127.0.0.1:18888/intermediate1_crl.der
            Authority Information Access: 
                OCSP - URI:http://127.0.0.1:18888/
            X509v3 Subject Alternative Name: 
                email:UserA2@user.net
    Signature Algorithm: sha256WithRSAEncryption
    Signature Value:
        7c:1b:ae:98:16:42:f3:b2:a6:66:e9:a4:4f:61:04:a8:23:d5:
        55:ea:d4:68:b5:98:fd:66:ff:10:dc:54:b7:01:78:4f:fc:e1:
        75:e8:09:6d:ad:ac:57:b0:33:41:26:3d:ac:b0:17:46:c4:6f:
        5b:c7:fa:ad:d2:94:13:ef:5e:bb:f5:ad:2d:39:85:d3:af:ff:
        56:8e:f6:d1:20:12:03:86:cd:e8:ad:38:49:30:fb:98:de:3a:
        5f:61:5a:08:37:a9:c3:10:ed:a3:60:3c:46:68:30:d8:4a:ac:
        5d:eb:fd:d9:5d:90:b1:f0:b8:a8:68:5e:c8:41:6f:de:eb:a1:
        cc:33:98:2d:06:17:26:c4:24:bf:62:82:a9:13:04:71:3e:6e:
        ca:20:cf:5c:c5:47:67:f5:db:2e:56:60:4c:52:0c:4e:59:16:
        da:6a:e3:b2:e4:cb:d6:65:26:df:26:2e:e0:f4:11:b1:36:92:
        7c:ab:c3:c3:97:a5:06:26:54:5c:c1:35:a1:2f:e5:0f:2f:91:
        2d:cd:c5:dd:a7:f2:4c:e1:4d:0d:5c:bd:25:4f:c8:52:79:c2:
        29:78:ef:88:10:43:a4:c4:df:97:48:22:09:db:48:19:85:01:
        48:39:28:20:69:1d:31:b5:4f:97:e0:ea:38:6d:e0:98:4b:78:
        a4:b7:fd:c2
-----BEGIN CERTIFICATE-----
MIIEXTCCA0WgAwIBAgIUej36W5vfaVVunFNM/IZ1Zbx4TCQwDQYJKoZIhvcNAQEL
BQAwWjELMAkGA1UEBhMCVVMxCzAJBgNVBAgMAldBMQ8wDQYDVQQHDAZUYWNvbWEx
ETAPBgNVBAoMCFRlc3RuYXRzMRowGAYDVQQDDBFJbnRlcm1lZGlhdGUgQ0EgMTAe
Fw0yMzA1MDExOTM3MzZaFw0zMzA0MjgxOTM3MzZaME8xCzAJBgNVBAYTAlVTMQsw
CQYDVQQIDAJXQTEPMA0GA1UEBwwGVGFjb21hMREwDwYDVQQKDAhUZXN0bmF0czEP
MA0GA1UEAwwGVXNlckEyMIIBIjANBgkqhkiG9w0BAQEFAAOCAQ8AMIIBCgKCAQEA
pnxAgCtEADMRxsKdZz6Hjn5A0/XTJ7Z9GDzAhqyWOq3Yw8urcl5MtyRF2seozHS4
IXVinoGIllRu2/mML0yXDc4hQi+SV380KwJDTCKuFMr8sizQZw5S4G1hlqY7zE9q
1u9FnHSSJWwKEGIbIisRa9FSTdqNw0rmdKcbHu+K9JaIAg23VzWfo/+iLLcOJ055
L88M8ZEOvwHXonEstw5LflCRiXHCF6rLKYCe1yv6M0HogtE6lz1s3mabtOoa65S+
bsBm6Hc9ctVcpeirOzP0s8ImSbwIVc8WthIikf7BWrLXd+P0R7zEd2v1f8PoSJm5
qOqxrubMOhL6TS9fD6j9jQIDAQABo4IBJDCCASAwHQYDVR0OBBYEFLiOT3bx+Dyl
I8WPoS5kPkhTAs1rMB8GA1UdIwQYMBaAFLWRbk9ktxaEdvm0vpnOYJWYGo6dMAwG
A1UdEwEB/wQCMAAwEQYJYIZIAYb4QgEBBAQDAgWgMA4GA1UdDwEB/wQEAwIF4DAd
BgNVHSUEFjAUBggrBgEFBQcDAgYIKwYBBQUHAwQwPQYDVR0fBDYwNDAyoDCgLoYs
aHR0cDovLzEyNy4wLjAuMToxODg4OC9pbnRlcm1lZGlhdGUxX2NybC5kZXIwMwYI
KwYBBQUHAQEEJzAlMCMGCCsGAQUFBzABhhdodHRwOi8vMTI3LjAuMC4xOjE4ODg4
LzAaBgNVHREEEzARgQ9Vc2VyQTJAdXNlci5uZXQwDQYJKoZIhvcNAQELBQADggEB
AHwbrpgWQvOypmbppE9hBKgj1VXq1Gi1mP1m/xDcVLcBeE/84XXoCW2trFewM0Em
PaywF0bEb1vH+q3SlBPvXrv1rS05hdOv/1aO9tEgEgOGzeitOEkw+5jeOl9hWgg3
qcMQ7aNgPEZoMNhKrF3r/dldkLHwuKhoXshBb97rocwzmC0GFybEJL9igqkTBHE+
bsogz1zFR2f12y5WYExSDE5ZFtpq47Lky9ZlJt8mLuD0EbE2knyrw8OXpQYmVFzB
NaEv5Q8vkS3Nxd2n8kzhTQ1cvSVPyFJ5wil474gQQ6TE35dIIgnbSBmFAUg5KCBp
HTG1T5fg6jht4JhLeKS3/cI=
-----END CERTIFICATE-----
Certificate:
    Data:
        Version: 3 (0x2)
        Serial Number:
            55:57:db:45:43:06:ce:52:63:59:b9:5a:26:78:fd:0d:94:68:95:9c
        Signature Algorithm: sha256WithRSAEncryption
        Issuer: C=US, ST=WA, L=Tacoma, O=Testnats, CN=Root CA
        Validity
            Not Before: May  1 19:01:15 2023 GMT
            Not After : Apr 28 19:01:15 2033 GMT
        Subject: C=US, ST=WA, L=Tacoma, O=Testnats, CN=Intermediate CA 1
        Subject Public Key Info:
            Public Key Algorithm: rsaEncryption
                Public-Key: (2048 bit)
                Modulus:
                    00:bc:c6:84:2d:c2:ab:5d:05:d7:65:a8:e2:15:74:
                    d8:f2:f1:55:11:45:93:96:4c:a5:dc:cb:44:f5:f4:
                    14:7e:46:02:59:e8:ae:78:59:69:21:58:f7:16:38:
                    b9:c2:c2:60:d8:76:ab:a1:39:ba:0b:a3:03:17:e4:
                    a1:cb:5d:1a:0c:62:71:24:64:b0:00:f0:6f:4c:af:
                    08:62:8c:dc:4f:e0:d7:d4:55:2c:db:36:fc:a9:aa:
                    d7:58:27:e4:99:cb:dc:29:d9:ea:35:16:cb:2e:be:
                    04:b2:82:58:f4:e5:5c:07:db:12:8e:e3:3c:9a:5e:
                    90:4b:c5:a3:d4:21:96:5f:e1:8f:f7:cb:9e:db:e0:
                    10:a0:6c:a2:1e:30:17:6c:32:9f:7b:43:a4:9f:d3:
                    6b:33:1b:18:cd:a4:ad:33:48:a3:98:b0:2b:c8:22:
                    74:17:71:d8:f1:64:21:55:e1:33:bc:7f:74:5f:a5:
                    a6:a2:9b:58:2f:db:ed:c7:c1:e5:36:2e:86:26:ad:
                    c6:fe:b8:00:85:6e:7c:ed:fd:4a:c6:a0:d9:b2:3f:
                    4e:bd:fa:08:52:c8:5d:31:13:86:bd:3f:ec:7a:d8:
                    3a:15:e2:71:af:ec:00:88:7e:a6:e8:e1:9d:ab:57:
                    5a:8a:1f:f8:e2:4d:29:58:53:79:25:f0:9e:d9:18:
                    40:27
                Exponent: 65537 (0x10001)
        X509v3 extensions:
            X509v3 Subject Key Identifier: 
                B5:91:6E:4F:64:B7:16:84:76:F9:B4:BE:99:CE:60:95:98:1A:8E:9D
            X509v3 Authority Key Identifier: 
                C3:12:42:BA:A9:D8:4D:E0:C3:3E:BA:D7:47:41:A6:09:2F:6D:B4:E1
            X509v3 Basic Constraints: critical
                CA:TRUE, pathlen:0
            X509v3 Key Usage: critical
                Digital Signature, Certificate Sign, CRL Sign
            X509v3 CRL Distribution Points: 
                Full Name:
                  URI:http://127.0.0.1:8888/root_crl.der
            Authority Information Access: 
                OCSP - URI:http://127.0.0.1:8888/
    Signature Algorithm: sha256WithRSAEncryption
    Signature Value:
        b1:48:16:3b:d7:91:d0:4d:54:09:cb:ab:c7:41:4f:35:12:8b:
        a6:e8:84:11:49:a9:04:91:41:25:7c:02:38:b2:19:a0:e9:2e:
        d5:d6:7a:26:c1:1a:f8:f1:c6:51:92:68:af:c8:6e:5b:df:28:
        40:b8:99:94:d5:43:7d:e3:68:75:94:26:56:11:21:9e:50:b3:
        36:7b:f8:5f:33:76:64:71:04:26:2b:bb:2c:83:33:89:ba:74:
        c1:e9:9d:eb:c0:86:4b:4d:6f:f8:4d:55:5a:3d:f6:55:95:33:
        0f:b8:f0:53:2b:93:a6:da:8d:5c:1a:e8:30:22:55:67:44:6e:
        17:c4:57:05:0d:ce:fc:61:dd:b1:3c:b0:66:55:f4:42:d0:ce:
        94:7d:6a:82:bd:32:ed:2f:21:ff:c7:70:ff:48:9d:10:4a:71:
        be:a8:37:e5:0f:f4:79:1e:7d:a2:f1:6a:6b:2c:e8:03:20:ce:
        80:94:d2:38:80:bc:7e:56:c5:77:62:94:c0:b7:40:11:4d:ba:
        98:4b:2e:52:03:66:68:36:ab:d1:0f:3e:b5:92:a3:95:9d:a4:
        ea:d3:8a:14:41:6d:86:24:89:aa:d7:29:20:c8:52:d5:bf:8d:
        3b:09:52:dd:89:8c:2c:85:40:b5:9f:cc:47:63:ca:3a:e0:c9:
        91:5c:43:a9
-----BEGIN CERTIFICATE-----
MIIECTCCAvGgAwIBAgIUVVfbRUMGzlJjWblaJnj9DZRolZwwDQYJKoZIhvcNAQEL
BQAwUDELMAkGA1UEBhMCVVMxCzAJBgNVBAgMAldBMQ8wDQYDVQQHDAZUYWNvbWEx
ETAPBgNVBAoMCFRlc3RuYXRzMRAwDgYDVQQDDAdSb290IENBMB4XDTIzMDUwMTE5
MDExNVoXDTMzMDQyODE5MDExNVowWjELMAkGA1UEBhMCVVMxCzAJBgNVBAgMAldB
MQ8wDQYDVQQHDAZUYWNvbWExETAPBgNVBAoMCFRlc3RuYXRzMRowGAYDVQQDDBFJ
bnRlcm1lZGlhdGUgQ0EgMTCCASIwDQYJKoZIhvcNAQEBBQADggEPADCCAQoCggEB
ALzGhC3Cq10F12Wo4hV02PLxVRFFk5ZMpdzLRPX0FH5GAlnornhZaSFY9xY4ucLC
YNh2q6E5ugujAxfkoctdGgxicSRksADwb0yvCGKM3E/g19RVLNs2/Kmq11gn5JnL
3CnZ6jUWyy6+BLKCWPTlXAfbEo7jPJpekEvFo9Qhll/hj/fLntvgEKBsoh4wF2wy
n3tDpJ/TazMbGM2krTNIo5iwK8gidBdx2PFkIVXhM7x/dF+lpqKbWC/b7cfB5TYu
hiatxv64AIVufO39Ssag2bI/Tr36CFLIXTEThr0/7HrYOhXica/sAIh+pujhnatX
Woof+OJNKVhTeSXwntkYQCcCAwEAAaOB0DCBzTAdBgNVHQ4EFgQUtZFuT2S3FoR2
+bS+mc5glZgajp0wHwYDVR0jBBgwFoAUwxJCuqnYTeDDPrrXR0GmCS9ttOEwEgYD
VR0TAQH/BAgwBgEB/wIBADAOBgNVHQ8BAf8EBAMCAYYwMwYDVR0fBCwwKjAooCag
JIYiaHR0cDovLzEyNy4wLjAuMTo4ODg4L3Jvb3RfY3JsLmRlcjAyBggrBgEFBQcB
AQQmMCQwIgYIKwYBBQUHMAGGFmh0dHA6Ly8xMjcuMC4wLjE6ODg4OC8wDQYJKoZI
hvcNAQELBQADggEBALFIFjvXkdBNVAnLq8dBTzUSi6bohBFJqQSRQSV8AjiyGaDp
LtXWeibBGvjxxlGSaK/IblvfKEC4mZTVQ33jaHWUJlYRIZ5QszZ7+F8zdmRxBCYr
uyyDM4m6dMHpnevAhktNb/hNVVo99lWVMw+48FMrk6bajVwa6DAiVWdEbhfEVwUN
zvxh3bE8sGZV9ELQzpR9aoK9Mu0vIf/HcP9InRBKcb6oN+UP9HkefaLxamss6AMg
zoCU0jiAvH5WxXdilMC3QBFNuphLLlIDZmg2q9EPPrWSo5WdpOrTihRBbYYkiarX
KSDIUtW/jTsJUt2JjCyFQLWfzEdjyjrgyZFcQ6k=
-----END CERTIFICATE-----
