Certificate:
    Data:
        Version: 3 (0x2)
        Serial Number:
            7a:3d:fa:5b:9b:df:69:55:6e:9c:53:4c:fc:86:75:65:bc:78:4c:24
        Signature Algorithm: sha256WithRSAEncryption
        Issuer: C=US, ST=WA, L=Tacoma, O=Testnats, CN=Intermediate CA 1
        Validity
            Not Before: May  1 19:37:36 2023 GMT
            Not After : Apr 28 19:37:36 2033 GMT
        Subject: C=US, ST=WA, L=Tacoma, O=Testnats, CN=UserA2
        Subject Public Key Info:
            Public Key Algorithm: rsaEncryption
                Public-Key: (2048 bit)
                Modulus:
                    00:a6:7c:40:80:2b:44:00:33:11:c6:c2:9d:67:3e:
                    87:8e:7e:40:d3:f5:d3:27:b6:7d:18:3c:c0:86:ac:
                    96:3a:ad:d8:c3:cb:ab:72:5e:4c:b7:24:45:da:c7:
                    a8:cc:74:b8:21:75:62:9e:81:88:96:54:6e:db:f9:
                    8c:2f:4c:97:0d:ce:21:42:2f:92:57:7f:34:2b:02:
                    43:4c:22:ae:14:ca:fc:b2:2c:d0:67:0e:52:e0:6d:
                    61:96:a6:3b:cc:4f:6a:d6:ef:45:9c:74:92:25:6c:
                    0a:10:62:1b:22:2b:11:6b:d1:52:4d:da:8d:c3:4a:
                    e6:74:a7:1b:1e:ef:8a:f4:96:88:02:0d:b7:57:35:
                    9f:a3:ff:a2:2c:b7:0e:27:4e:79:2f:cf:0c:f1:91:
                    0e:bf:01:d7:a2:71:2c:b7:0e:4b:7e:50:91:89:71:
                    c2:17:aa:cb:29:80:9e:d7:2b:fa:33:41:e8:82:d1:
                    3a:97:3d:6c:de:66:9b:b4:ea:1a:eb:94:be:6e:c0:
                    66:e8:77:3d:72:d5:5c:a5:e8:ab:3b:33:f4:b3:c2:
                    26:49:bc:08:55:cf:16:b6:12:22:91:fe:c1:5a:b2:
                    d7:77:e3:f4:47:bc:c4:77:6b:f5:7f:c3:e8:48:99:
                    b9:a8:ea:b1:ae:e6:cc:3a:12:fa:4d:2f:5f:0f:a8:
                    fd:8d
                Exponent: 65537 (0x10001)
        X509v3 extensions:
            X509v3 Subject Key Identifier: 
                B8:8E:4F:76:F1:F8:3C:A5:23:C5:8F:A1:2E:64:3E:48:53:02:CD:6B
            X509v3 Authority Key Identifier: 
                B5:91:6E:4F:64:B7:16:84:76:F9:B4:BE:99:CE:60:95:98:1A:8E:9D
            X509v3 Basic Constraints: critical
                CA:FALSE
            Netscape Cert Type: 
                SSL Client, S/MIME
            X509v3 Key Usage: critical
                Digital Signature, Non Repudiation, Key Encipherment
            X509v3 Extended Key Usage: 
                TLS Web Client Authentication, E-mail Protection
            X509v3 CRL Distribution Points: 
                Full Name:
                  URI:http://127.0.0.1:18888/intermediate1_crl.der
            Authority Information Access: 
                OCSP - URI:http://127.0.0.1:18888/
            X509v3 Subject Alternative Name: 
                email:UserA2@user.net
    Signature Algorithm: sha256WithRSAEncryption
    Signature Value:
        7c:1b:ae:98:16:42:f3:b2:a6:66:e9:a4:4f:61:04:a8:23:d5:
        55:ea:d4:68:b5:98:fd:66:ff:10:dc:54:b7:01:78:4f:fc:e1:
        75:e8:09:6d:ad:ac:57:b0:33:41:26:3d:ac:b0:17:46:c4:6f:
        5b:c7:fa:ad:d2:94:13:ef:5e:bb:f5:ad:2d:39:85:d3:af:ff:
        56:8e:f6:d1:20:12:03:86:cd:e8:ad:38:49:30:fb:98:de:3a:
        5f:61:5a:08:37:a9:c3:10:ed:a3:60:3c:46:68:30:d8:4a:ac:
        5d:eb:fd:d9:5d:90:b1:f0:b8:a8:68:5e:c8:41:6f:de:eb:a1:
        cc:33:98:2d:06:17:26:c4:24:bf:62:82:a9:13:04:71:3e:6e:
        ca:20:cf:5c:c5:47:67:f5:db:2e:56:60:4c:52:0c:4e:59:16:
        da:6a:e3:b2:e4:cb:d6:65:26:df:26:2e:e0:f4:11:b1:36:92:
        7c:ab:c3:c3:97:a5:06:26:54:5c:c1:35:a1:2f:e5:0f:2f:91:
        2d:cd:c5:dd:a7:f2:4c:e1:4d:0d:5c:bd:25:4f:c8:52:79:c2:
        29:78:ef:88:10:43:a4:c4:df:97:48:22:09:db:48:19:85:01:
        48:39:28:20:69:1d:31:b5:4f:97:e0:ea:38:6d:e0:98:4b:78:
        a4:b7:fd:c2
-----BEGIN CERTIFICATE-----
MIIEXTCCA0WgAwIBAgIUej36W5vfaVVunFNM/IZ1Zbx4TCQwDQYJKoZIhvcNAQEL
BQAwWjELMAkGA1UEBhMCVVMxCzAJBgNVBAgMAldBMQ8wDQYDVQQHDAZUYWNvbWEx
ETAPBgNVBAoMCFRlc3RuYXRzMRowGAYDVQQDDBFJbnRlcm1lZGlhdGUgQ0EgMTAe
Fw0yMzA1MDExOTM3MzZaFw0zMzA0MjgxOTM3MzZaME8xCzAJBgNVBAYTAlVTMQsw
CQYDVQQIDAJXQTEPMA0GA1UEBwwGVGFjb21hMREwDwYDVQQKDAhUZXN0bmF0czEP
MA0GA1UEAwwGVXNlckEyMIIBIjANBgkqhkiG9w0BAQEFAAOCAQ8AMIIBCgKCAQEA
pnxAgCtEADMRxsKdZz6Hjn5A0/XTJ7Z9GDzAhqyWOq3Yw8urcl5MtyRF2seozHS4
IXVinoGIllRu2/mML0yXDc4hQi+SV380KwJDTCKuFMr8sizQZw5S4G1hlqY7zE9q
1u9FnHSSJWwKEGIbIisRa9FSTdqNw0rmdKcbHu+K9JaIAg23VzWfo/+iLLcOJ055
L88M8ZEOvwHXonEstw5LflCRiXHCF6rLKYCe1yv6M0HogtE6lz1s3mabtOoa65S+
bsBm6Hc9ctVcpeirOzP0s8ImSbwIVc8WthIikf7BWrLXd+P0R7zEd2v1f8PoSJm5
qOqxrubMOhL6TS9fD6j9jQIDAQABo4IBJDCCASAwHQYDVR0OBBYEFLiOT3bx+Dyl
I8WPoS5kPkhTAs1rMB8GA1UdIwQYMBaAFLWRbk9ktxaEdvm0vpnOYJWYGo6dMAwG
A1UdEwEB/wQCMAAwEQYJYIZIAYb4QgEBBAQDAgWgMA4GA1UdDwEB/wQEAwIF4DAd
BgNVHSUEFjAUBggrBgEFBQcDAgYIKwYBBQUHAwQwPQYDVR0fBDYwNDAyoDCgLoYs
aHR0cDovLzEyNy4wLjAuMToxODg4OC9pbnRlcm1lZGlhdGUxX2NybC5kZXIwMwYI
KwYBBQUHAQEEJzAlMCMGCCsGAQUFBzABhhdodHRwOi8vMTI3LjAuMC4xOjE4ODg4
LzAaBgNVHREEEzARgQ9Vc2VyQTJAdXNlci5uZXQwDQYJKoZIhvcNAQELBQADggEB
AHwbrpgWQvOypmbppE9hBKgj1VXq1Gi1mP1m/xDcVLcBeE/84XXoCW2trFewM0Em
PaywF0bEb1vH+q3SlBPvXrv1rS05hdOv/1aO9tEgEgOGzeitOEkw+5jeOl9hWgg3
qcMQ7aNgPEZoMNhKrF3r/dldkLHwuKhoXshBb97rocwzmC0GFybEJL9igqkTBHE+
bsogz1zFR2f12y5WYExSDE5ZFtpq47Lky9ZlJt8mLuD0EbE2knyrw8OXpQYmVFzB
NaEv5Q8vkS3Nxd2n8kzhTQ1cvSVPyFJ5wil474gQQ6TE35dIIgnbSBmFAUg5KCBp
HTG1T5fg6jht4JhLeKS3/cI=
-----END CERTIFICATE-----
