Certificate:
    Data:
        Version: 3 (0x2)
        Serial Number:
            5c:a1:af:d5:7c:bb:16:ef:c2:c7:e6:53:fc:94:1a:ed:24:bb:b4:17
        Signature Algorithm: sha256WithRSAEncryption
        Issuer: C=US, ST=WA, L=Tacoma, O=Testnats, CN=Intermediate CA 1
        Validity
            Not Before: May  1 19:37:36 2023 GMT
            Not After : Apr 28 19:37:36 2033 GMT
        Subject: C=US, ST=WA, L=Tacoma, O=Testnats, CN=UserA1
        Subject Public Key Info:
            Public Key Algorithm: rsaEncryption
                Public-Key: (2048 bit)
                Modulus:
                    00:b4:eb:22:e2:c4:ba:7f:33:aa:57:ab:13:f1:69:
                    09:98:28:3c:7d:a7:e2:41:2a:28:2f:f9:85:a1:6c:
                    94:ee:0a:eb:4d:01:4c:28:7c:9d:05:4d:d8:10:7f:
                    b7:cf:13:c2:a6:de:11:0c:97:38:97:cd:6d:11:fd:
                    16:76:c0:eb:5a:b7:7b:17:13:45:9d:4b:00:4f:26:
                    c5:b1:9b:67:93:2c:d6:d5:33:37:e1:50:1d:7b:0d:
                    be:8c:cb:bd:29:99:8f:54:f6:7e:04:84:82:2a:28:
                    ee:71:3e:8d:5f:72:b2:6a:77:6b:47:3e:ba:4d:b3:
                    e2:96:14:71:0a:1e:26:16:8f:6c:1b:07:2a:ac:15:
                    89:1e:88:63:c3:81:3b:91:e9:f3:43:1b:f0:ec:08:
                    24:96:46:27:21:2a:56:25:2c:b6:cc:d9:02:70:77:
                    9d:e4:7c:44:8c:93:04:85:a3:09:0a:8e:f5:e7:21:
                    fa:bd:56:28:b7:52:20:09:ec:9a:c4:d4:d7:8a:19:
                    4e:7a:10:e9:b2:10:36:68:ce:ce:78:8b:79:3f:6f:
                    70:3b:75:6d:70:59:3a:c9:85:a8:f8:23:d4:ab:44:
                    c2:ae:f5:1c:6e:38:11:e1:5f:cc:8f:e2:43:f5:b3:
                    0e:09:17:b3:c6:ee:47:fb:39:c4:58:62:ba:e3:a8:
                    c5:ef
                Exponent: 65537 (0x10001)
        X509v3 extensions:
            X509v3 Subject Key Identifier: 
                70:55:CA:CA:A5:8F:4D:73:39:47:E2:97:A3:1F:F6:3E:33:C9:7A:BF
            X509v3 Authority Key Identifier: 
                B5:91:6E:4F:64:B7:16:84:76:F9:B4:BE:99:CE:60:95:98:1A:8E:9D
            X509v3 Basic Constraints: critical
                CA:FALSE
            Netscape Cert Type: 
                SSL Client, S/MIME
            X509v3 Key Usage: critical
                Digital Signature, Non Repudiation, Key Encipherment
            X509v3 Extended Key Usage: 
                TLS Web Client Authentication, E-mail Protection
            X509v3 CRL Distribution Points: 
                Full Name:
                  URI:http://127.0.0.1:18888/intermediate1_crl.der
            Authority Information Access: 
                OCSP - URI:http://127.0.0.1:18888/
            X509v3 Subject Alternative Name: 
                email:UserA1@user.net
    Signature Algorithm: sha256WithRSAEncryption
    Signature Value:
        99:81:61:3a:f1:c2:de:05:ad:ab:f3:fd:e0:d5:97:5b:fe:b2:
        fa:e2:5f:ab:41:9d:71:1d:10:54:0b:bc:b5:c9:8d:26:91:a9:
        45:71:51:14:61:a7:3c:ef:1d:f7:db:71:2f:1f:c1:d7:80:96:
        03:5d:0d:69:81:fa:be:ca:f7:56:70:7b:89:ca:8f:b6:16:ee:
        4a:83:fc:70:2e:4b:0c:50:ba:c6:06:5e:58:bb:25:d6:19:40:
        82:b4:18:57:16:5f:f2:98:3e:5d:9d:72:7a:8f:20:de:25:c2:
        06:a7:46:b2:cc:4c:f9:da:a7:43:f5:a0:92:e4:e2:05:49:43:
        9d:58:9f:20:5d:e2:88:77:f1:10:0c:f5:fc:a2:85:b6:41:0a:
        1a:12:75:1e:47:3b:b3:4f:c9:45:71:99:b6:14:e9:6b:7d:7a:
        98:ee:82:dd:59:f6:af:fa:a5:d1:1c:24:db:66:e7:82:bb:53:
        70:4f:27:96:dc:19:c0:9e:2d:df:da:00:2f:c3:22:9e:71:9c:
        b3:89:da:0a:79:c3:f6:e3:9b:ca:b7:db:b6:5c:8f:e9:29:cb:
        d0:9c:e3:0e:0f:7c:2c:b5:b0:36:a9:13:38:d2:8e:6f:6a:6c:
        0a:7f:3f:dd:af:b1:e2:ea:c6:de:1d:b0:97:c9:36:1d:85:81:
        aa:42:9f:53
-----BEGIN CERTIFICATE-----
MIIEXTCCA0WgAwIBAgIUXKGv1Xy7Fu/Cx+ZT/JQa7SS7tBcwDQYJKoZIhvcNAQEL
BQAwWjELMAkGA1UEBhMCVVMxCzAJBgNVBAgMAldBMQ8wDQYDVQQHDAZUYWNvbWEx
ETAPBgNVBAoMCFRlc3RuYXRzMRowGAYDVQQDDBFJbnRlcm1lZGlhdGUgQ0EgMTAe
Fw0yMzA1MDExOTM3MzZaFw0zMzA0MjgxOTM3MzZaME8xCzAJBgNVBAYTAlVTMQsw
CQYDVQQIDAJXQTEPMA0GA1UEBwwGVGFjb21hMREwDwYDVQQKDAhUZXN0bmF0czEP
MA0GA1UEAwwGVXNlckExMIIBIjANBgkqhkiG9w0BAQEFAAOCAQ8AMIIBCgKCAQEA
tOsi4sS6fzOqV6sT8WkJmCg8fafiQSooL/mFoWyU7grrTQFMKHydBU3YEH+3zxPC
pt4RDJc4l81tEf0WdsDrWrd7FxNFnUsATybFsZtnkyzW1TM34VAdew2+jMu9KZmP
VPZ+BISCKijucT6NX3KyandrRz66TbPilhRxCh4mFo9sGwcqrBWJHohjw4E7kenz
Qxvw7AgklkYnISpWJSy2zNkCcHed5HxEjJMEhaMJCo715yH6vVYot1IgCeyaxNTX
ihlOehDpshA2aM7OeIt5P29wO3VtcFk6yYWo+CPUq0TCrvUcbjgR4V/Mj+JD9bMO
CRezxu5H+znEWGK646jF7wIDAQABo4IBJDCCASAwHQYDVR0OBBYEFHBVysqlj01z
OUfil6Mf9j4zyXq/MB8GA1UdIwQYMBaAFLWRbk9ktxaEdvm0vpnOYJWYGo6dMAwG
A1UdEwEB/wQCMAAwEQYJYIZIAYb4QgEBBAQDAgWgMA4GA1UdDwEB/wQEAwIF4DAd
BgNVHSUEFjAUBggrBgEFBQcDAgYIKwYBBQUHAwQwPQYDVR0fBDYwNDAyoDCgLoYs
aHR0cDovLzEyNy4wLjAuMToxODg4OC9pbnRlcm1lZGlhdGUxX2NybC5kZXIwMwYI
KwYBBQUHAQEEJzAlMCMGCCsGAQUFBzABhhdodHRwOi8vMTI3LjAuMC4xOjE4ODg4
LzAaBgNVHREEEzARgQ9Vc2VyQTFAdXNlci5uZXQwDQYJKoZIhvcNAQELBQADggEB
AJmBYTrxwt4Fravz/eDVl1v+svriX6tBnXEdEFQLvLXJjSaRqUVxURRhpzzvHffb
cS8fwdeAlgNdDWmB+r7K91Zwe4nKj7YW7kqD/HAuSwxQusYGXli7JdYZQIK0GFcW
X/KYPl2dcnqPIN4lwganRrLMTPnap0P1oJLk4gVJQ51YnyBd4oh38RAM9fyihbZB
ChoSdR5HO7NPyUVxmbYU6Wt9epjugt1Z9q/6pdEcJNtm54K7U3BPJ5bcGcCeLd/a
AC/DIp5xnLOJ2gp5w/bjm8q327Zcj+kpy9Cc4w4PfCy1sDapEzjSjm9qbAp/P92v
seLqxt4dsJfJNh2FgapCn1M=
-----END CERTIFICATE-----
