Certificate:
    Data:
        Version: 3 (0x2)
        Serial Number:
            3e:1f:9b:cd:c8:7b:95:f1:64:e6:41:9c:df:6e:03:da:92:9a:90:b7
        Signature Algorithm: sha256WithRSAEncryption
        Issuer: C=US, ST=WA, L=Tacoma, O=Testnats, CN=Intermediate CA 2
        Validity
            Not Before: Aug  2 22:15:27 2023 GMT
            Not After : Jul 30 22:15:27 2033 GMT
        Subject: C=US, ST=WA, L=Tacoma, O=Testnats, CN=TestServer3
        Subject Public Key Info:
            Public Key Algorithm: rsaEncryption
                Public-Key: (2048 bit)
                Modulus:
                    00:9a:3c:db:76:c9:19:0f:7b:e6:d3:ed:d1:0b:76:
                    ae:15:d4:11:1c:66:b8:5d:2a:7d:e3:1f:65:d8:1b:
                    c4:63:62:f6:5c:8b:18:66:a8:1c:c2:a6:5e:72:f2:
                    dd:57:42:8a:ab:5d:bd:37:b6:f1:4b:51:f0:b3:6a:
                    37:e9:55:78:01:23:ea:53:09:83:2f:7d:59:36:ab:
                    33:4f:4c:bc:ef:a9:1c:db:94:79:4c:0d:4a:7c:3f:
                    9d:3c:ba:6c:76:82:47:25:eb:79:22:f4:09:6c:78:
                    3c:a6:ef:4b:30:90:29:b3:5f:ba:69:b1:1a:95:ed:
                    53:e0:c6:24:78:6e:52:af:8e:bc:db:4a:f0:19:d2:
                    00:5a:a8:b6:73:4c:17:92:d1:8d:81:9b:4c:b8:35:
                    4d:91:dd:df:d3:85:a6:9f:c4:91:19:ec:47:d1:ca:
                    4e:0b:c3:06:8c:27:42:95:83:e3:28:6a:3b:74:9c:
                    68:b0:55:a5:91:91:cb:37:ad:fa:d8:69:8b:de:2e:
                    4a:51:59:32:4b:3d:06:21:04:65:d2:f5:8b:e8:4d:
                    45:96:de:63:97:47:81:85:ea:48:f0:9d:23:2d:71:
                    87:6f:d2:75:3d:45:bf:de:ad:43:82:db:a5:29:9b:
                    f9:5e:38:0a:39:a9:38:71:ec:40:40:b5:dc:69:c7:
                    0b:73
                Exponent: 65537 (0x10001)
        X509v3 extensions:
            X509v3 Subject Key Identifier: 
                7F:47:8C:9E:F1:73:7E:34:B9:5B:1E:ED:AD:3A:87:42:80:D4:E3:FD
            X509v3 Authority Key Identifier: 
                75:55:E2:8E:E7:AD:A5:DD:80:3D:C9:33:0B:2C:A2:57:77:ED:15:AC
            X509v3 Basic Constraints: critical
                CA:FALSE
            Netscape Cert Type: 
                SSL Client, SSL Server
            X509v3 Key Usage: critical
                Digital Signature, Non Repudiation, Key Encipherment
            X509v3 Extended Key Usage: 
                TLS Web Server Authentication, TLS Web Client Authentication
            X509v3 CRL Distribution Points: 
                Full Name:
                  URI:http://127.0.0.1:28888/intermediate2_crl.der
            Authority Information Access: 
                OCSP - URI:http://127.0.0.1:28888/
            X509v3 Subject Alternative Name: 
                DNS:localhost, IP Address:127.0.0.1
    Signature Algorithm: sha256WithRSAEncryption
    Signature Value:
        b9:b4:05:48:a6:ba:6c:99:8b:23:c4:9b:b3:8a:32:3f:ca:62:
        89:81:1e:5d:04:ba:2d:22:a3:0f:5a:5d:a0:ab:40:a4:87:43:
        26:36:0a:09:64:ef:f5:b0:a7:6f:7a:1f:cc:06:6c:f7:8d:9c:
        64:5e:c2:ae:e7:45:39:dc:bc:87:06:e6:d5:aa:6b:32:76:51:
        64:e1:ac:d9:9a:dd:17:47:9b:4e:31:1c:93:f5:c5:ca:d6:b7:
        90:ff:64:97:59:df:2b:7f:ee:2d:7d:73:ef:95:ad:b5:1e:a9:
        0c:48:38:29:0b:39:4f:05:fb:07:cf:ec:94:a3:b3:d5:eb:00:
        ed:b2:b9:71:a0:59:b5:3f:7c:f5:20:90:54:a8:ea:36:4c:ae:
        62:5b:2b:6d:05:8d:76:78:87:c9:90:f3:b2:d1:72:fc:87:f5:
        28:4c:ec:19:50:0f:02:32:d4:57:75:d9:c1:b2:dc:0e:d4:9a:
        3a:cd:48:70:1e:c4:2e:fd:4f:b0:89:6a:de:f0:90:91:23:16:
        cd:04:fc:61:87:9c:c3:5c:7e:0f:19:ff:26:3e:fb:1b:65:2a:
        49:ae:47:9f:d5:e6:c8:30:bb:13:b9:48:d0:67:57:0f:fb:c6:
        df:1c:fc:82:3b:ae:1f:f7:25:c8:df:c0:c5:d1:8d:51:94:74:
        30:be:fb:f7
-----BEGIN CERTIFICATE-----
MIIEYjCCA0qgAwIBAgIUPh+bzch7lfFk5kGc324D2pKakLcwDQYJKoZIhvcNAQEL
BQAwWjELMAkGA1UEBhMCVVMxCzAJBgNVBAgMAldBMQ8wDQYDVQQHDAZUYWNvbWEx
ETAPBgNVBAoMCFRlc3RuYXRzMRowGAYDVQQDDBFJbnRlcm1lZGlhdGUgQ0EgMjAe
Fw0yMzA4MDIyMjE1MjdaFw0zMzA3MzAyMjE1MjdaMFQxCzAJBgNVBAYTAlVTMQsw
CQYDVQQIDAJXQTEPMA0GA1UEBwwGVGFjb21hMREwDwYDVQQKDAhUZXN0bmF0czEU
MBIGA1UEAwwLVGVzdFNlcnZlcjMwggEiMA0GCSqGSIb3DQEBAQUAA4IBDwAwggEK
AoIBAQCaPNt2yRkPe+bT7dELdq4V1BEcZrhdKn3jH2XYG8RjYvZcixhmqBzCpl5y
8t1XQoqrXb03tvFLUfCzajfpVXgBI+pTCYMvfVk2qzNPTLzvqRzblHlMDUp8P508
umx2gkcl63ki9AlseDym70swkCmzX7ppsRqV7VPgxiR4blKvjrzbSvAZ0gBaqLZz
TBeS0Y2Bm0y4NU2R3d/ThaafxJEZ7EfRyk4LwwaMJ0KVg+Moajt0nGiwVaWRkcs3
rfrYaYveLkpRWTJLPQYhBGXS9YvoTUWW3mOXR4GF6kjwnSMtcYdv0nU9Rb/erUOC
26Upm/leOAo5qThx7EBAtdxpxwtzAgMBAAGjggEkMIIBIDAdBgNVHQ4EFgQUf0eM
nvFzfjS5Wx7trTqHQoDU4/0wHwYDVR0jBBgwFoAUdVXijuetpd2APckzCyyiV3ft
FawwDAYDVR0TAQH/BAIwADARBglghkgBhvhCAQEEBAMCBsAwDgYDVR0PAQH/BAQD
AgXgMB0GA1UdJQQWMBQGCCsGAQUFBwMBBggrBgEFBQcDAjA9BgNVHR8ENjA0MDKg
MKAuhixodHRwOi8vMTI3LjAuMC4xOjI4ODg4L2ludGVybWVkaWF0ZTJfY3JsLmRl
cjAzBggrBgEFBQcBAQQnMCUwIwYIKwYBBQUHMAGGF2h0dHA6Ly8xMjcuMC4wLjE6
Mjg4ODgvMBoGA1UdEQQTMBGCCWxvY2FsaG9zdIcEfwAAATANBgkqhkiG9w0BAQsF
AAOCAQEAubQFSKa6bJmLI8Sbs4oyP8piiYEeXQS6LSKjD1pdoKtApIdDJjYKCWTv
9bCnb3ofzAZs942cZF7CrudFOdy8hwbm1aprMnZRZOGs2ZrdF0ebTjEck/XFyta3
kP9kl1nfK3/uLX1z75WttR6pDEg4KQs5TwX7B8/slKOz1esA7bK5caBZtT989SCQ
VKjqNkyuYlsrbQWNdniHyZDzstFy/If1KEzsGVAPAjLUV3XZwbLcDtSaOs1IcB7E
Lv1PsIlq3vCQkSMWzQT8YYecw1x+Dxn/Jj77G2UqSa5Hn9XmyDC7E7lI0GdXD/vG
3xz8gjuuH/clyN/AxdGNUZR0ML779w==
-----END CERTIFICATE-----
