Certificate:
    Data:
        Version: 3 (0x2)
        Serial Number:
            16:5e:ab:1c:8b:dc:fc:97:d9:34:9d:fd:cd:7d:b3:3c:51:83:ce:d2
        Signature Algorithm: sha256WithRSAEncryption
        Issuer: C=US, ST=WA, L=Tacoma, O=Testnats, CN=Intermediate CA 2
        Validity
            Not Before: Aug  2 22:15:38 2023 GMT
            Not After : Jul 30 22:15:38 2033 GMT
        Subject: C=US, ST=WA, L=Tacoma, O=Testnats, CN=TestServer4
        Subject Public Key Info:
            Public Key Algorithm: rsaEncryption
                Public-Key: (2048 bit)
                Modulus:
                    00:d5:fd:fb:3f:42:c7:ca:02:37:72:6e:78:d5:af:
                    8d:b4:4d:f4:4c:0c:8f:8f:67:da:62:c0:2a:0f:f3:
                    73:3b:83:c1:3a:df:9e:df:1d:26:12:95:41:ca:52:
                    88:4d:8b:38:7f:78:ce:ed:aa:48:b0:dc:57:62:80:
                    7a:fc:1f:43:c8:d8:2d:4f:38:c3:22:fc:bb:16:53:
                    84:9e:44:0c:f9:51:00:a0:57:97:3f:df:57:08:48:
                    3b:2b:55:b3:90:98:98:e6:a6:eb:ca:8f:ec:f8:4f:
                    dc:4d:7e:71:2e:03:ff:cd:fa:ef:65:7e:6d:8c:35:
                    be:df:fb:c1:0b:e9:f0:3b:89:24:4d:b4:02:7f:82:
                    8e:0a:34:ea:a8:68:9e:f8:4b:39:9a:8f:d5:eb:bc:
                    59:68:c9:f0:a5:eb:e9:be:7c:03:49:bd:b5:d9:54:
                    cf:88:29:b0:2c:a3:e9:08:b6:66:37:57:ef:66:5f:
                    6b:0f:34:6d:02:bf:92:2b:cc:e9:9d:c0:a8:92:0d:
                    76:8f:ae:f6:3f:24:38:e9:5b:fc:12:a2:ab:fa:42:
                    3f:5a:05:e3:5e:bb:08:43:5d:55:18:17:13:0a:27:
                    84:5f:05:69:18:a9:45:68:37:a7:35:f9:8c:ef:c5:
                    9f:b1:8d:aa:3c:b7:cc:47:b6:e5:85:e2:73:f5:8a:
                    5a:71
                Exponent: 65537 (0x10001)
        X509v3 extensions:
            X509v3 Subject Key Identifier: 
                C4:BB:A1:42:EA:15:3E:0E:D1:48:5F:B5:E2:01:42:D0:72:BE:B0:CE
            X509v3 Authority Key Identifier: 
                75:55:E2:8E:E7:AD:A5:DD:80:3D:C9:33:0B:2C:A2:57:77:ED:15:AC
            X509v3 Basic Constraints: critical
                CA:FALSE
            Netscape Cert Type: 
                SSL Client, SSL Server
            X509v3 Key Usage: critical
                Digital Signature, Non Repudiation, Key Encipherment
            X509v3 Extended Key Usage: 
                TLS Web Server Authentication, TLS Web Client Authentication
            X509v3 CRL Distribution Points: 
                Full Name:
                  URI:http://127.0.0.1:28888/intermediate2_crl.der
            Authority Information Access: 
                OCSP - URI:http://127.0.0.1:28888/
            X509v3 Subject Alternative Name: 
                DNS:localhost, IP Address:127.0.0.1
    Signature Algorithm: sha256WithRSAEncryption
    Signature Value:
        85:c2:1a:b0:94:8b:a0:f8:2c:85:1e:17:88:4e:ca:2c:d1:f6:
        69:26:e3:a6:94:9f:62:eb:68:54:da:2b:f2:67:23:be:4b:95:
        56:28:08:7a:52:8e:b3:b2:70:2f:c9:db:06:74:b4:8b:8e:84:
        23:0a:74:f7:c1:67:81:69:11:36:2b:0e:4c:0f:2c:76:e6:2d:
        50:f3:e8:59:0d:3a:6c:30:eb:31:16:74:c8:34:d1:62:97:6b:
        1e:2f:5c:56:b0:6e:bc:5e:08:8f:d4:ce:4a:d3:8e:91:70:7d:
        18:d4:3f:40:39:39:67:95:68:f7:16:c6:19:69:41:c2:20:2e:
        45:e3:9d:31:c2:da:67:8d:2c:1f:a2:3f:1e:46:23:19:fd:25:
        16:69:5c:80:09:1b:f7:7f:50:47:1d:d9:6b:aa:7b:0f:20:8d:
        5a:f4:37:f0:c3:a7:31:5f:4d:41:70:c8:c4:aa:2a:69:d0:a8:
        7b:3c:cc:b4:a4:12:54:a3:bf:ce:ea:22:20:58:ae:eb:29:f3:
        15:da:22:05:46:cd:26:ef:63:84:4a:5b:86:47:fe:cb:fa:4a:
        0c:fe:82:e0:db:81:dc:3e:87:8f:93:23:32:de:37:3d:d7:0f:
        6c:f1:74:63:8b:11:b7:f3:69:b7:d6:e0:72:b2:1d:e1:15:10:
        7d:2e:97:de
-----BEGIN CERTIFICATE-----
MIIEYjCCA0qgAwIBAgIUFl6rHIvc/JfZNJ39zX2zPFGDztIwDQYJKoZIhvcNAQEL
BQAwWjELMAkGA1UEBhMCVVMxCzAJBgNVBAgMAldBMQ8wDQYDVQQHDAZUYWNvbWEx
ETAPBgNVBAoMCFRlc3RuYXRzMRowGAYDVQQDDBFJbnRlcm1lZGlhdGUgQ0EgMjAe
Fw0yMzA4MDIyMjE1MzhaFw0zMzA3MzAyMjE1MzhaMFQxCzAJBgNVBAYTAlVTMQsw
CQYDVQQIDAJXQTEPMA0GA1UEBwwGVGFjb21hMREwDwYDVQQKDAhUZXN0bmF0czEU
MBIGA1UEAwwLVGVzdFNlcnZlcjQwggEiMA0GCSqGSIb3DQEBAQUAA4IBDwAwggEK
AoIBAQDV/fs/QsfKAjdybnjVr420TfRMDI+PZ9piwCoP83M7g8E6357fHSYSlUHK
UohNizh/eM7tqkiw3FdigHr8H0PI2C1POMMi/LsWU4SeRAz5UQCgV5c/31cISDsr
VbOQmJjmpuvKj+z4T9xNfnEuA//N+u9lfm2MNb7f+8EL6fA7iSRNtAJ/go4KNOqo
aJ74Szmaj9XrvFloyfCl6+m+fANJvbXZVM+IKbAso+kItmY3V+9mX2sPNG0Cv5Ir
zOmdwKiSDXaPrvY/JDjpW/wSoqv6Qj9aBeNeuwhDXVUYFxMKJ4RfBWkYqUVoN6c1
+YzvxZ+xjao8t8xHtuWF4nP1ilpxAgMBAAGjggEkMIIBIDAdBgNVHQ4EFgQUxLuh
QuoVPg7RSF+14gFC0HK+sM4wHwYDVR0jBBgwFoAUdVXijuetpd2APckzCyyiV3ft
FawwDAYDVR0TAQH/BAIwADARBglghkgBhvhCAQEEBAMCBsAwDgYDVR0PAQH/BAQD
AgXgMB0GA1UdJQQWMBQGCCsGAQUFBwMBBggrBgEFBQcDAjA9BgNVHR8ENjA0MDKg
MKAuhixodHRwOi8vMTI3LjAuMC4xOjI4ODg4L2ludGVybWVkaWF0ZTJfY3JsLmRl
cjAzBggrBgEFBQcBAQQnMCUwIwYIKwYBBQUHMAGGF2h0dHA6Ly8xMjcuMC4wLjE6
Mjg4ODgvMBoGA1UdEQQTMBGCCWxvY2FsaG9zdIcEfwAAATANBgkqhkiG9w0BAQsF
AAOCAQEAhcIasJSLoPgshR4XiE7KLNH2aSbjppSfYutoVNor8mcjvkuVVigIelKO
s7JwL8nbBnS0i46EIwp098FngWkRNisOTA8sduYtUPPoWQ06bDDrMRZ0yDTRYpdr
Hi9cVrBuvF4Ij9TOStOOkXB9GNQ/QDk5Z5Vo9xbGGWlBwiAuReOdMcLaZ40sH6I/
HkYjGf0lFmlcgAkb939QRx3Za6p7DyCNWvQ38MOnMV9NQXDIxKoqadCoezzMtKQS
VKO/zuoiIFiu6ynzFdoiBUbNJu9jhEpbhkf+y/pKDP6C4NuB3D6Hj5MjMt43PdcP
bPF0Y4sRt/Npt9bgcrId4RUQfS6X3g==
-----END CERTIFICATE-----
