Certificate:
    Data:
        Version: 3 (0x2)
        Serial Number:
            27:5e:cf:7e:be:aa:02:b9:a9:c7:42:30:43:fe:0e:80:05:91:dd:0b
        Signature Algorithm: sha256WithRSAEncryption
        Issuer: C=US, ST=WA, L=Tacoma, O=Testnats, CN=Root CA
        Validity
            Not Before: May  1 18:57:57 2023 GMT
            Not After : Apr 28 18:57:57 2033 GMT
        Subject: C=US, ST=WA, L=Tacoma, O=Testnats, CN=Root CA
        Subject Public Key Info:
            Public Key Algorithm: rsaEncryption
                Public-Key: (2048 bit)
                Modulus:
                    00:e2:21:6b:9f:ef:48:b9:de:22:fb:5b:37:09:68:
                    c7:b5:92:57:52:24:ef:85:00:e8:71:85:4d:0f:5b:
                    8c:c6:e7:4f:19:f6:e3:0b:70:a3:41:7e:71:d4:0f:
                    d6:fd:f2:1a:ca:aa:57:91:76:9a:b2:82:62:60:ce:
                    f2:00:2e:d4:bc:58:d3:60:30:42:a6:28:b2:50:7b:
                    58:01:9f:fb:0a:65:b0:40:d6:7c:e2:b7:da:8d:19:
                    d9:a5:51:d2:46:7e:14:46:ab:fa:df:ce:fe:84:08:
                    98:63:46:1d:4d:8a:77:57:67:da:16:8b:32:0c:7c:
                    41:e2:a5:ec:ee:7d:20:28:eb:03:5f:f5:e6:05:d8:
                    8b:96:78:6f:ae:29:9a:50:f7:dc:96:31:86:81:b1:
                    78:e8:eb:ef:5d:bb:ed:42:ec:94:c6:54:46:ec:05:
                    6f:1b:0c:36:24:c6:a8:06:7e:5c:56:b8:43:3b:11:
                    f4:06:0a:05:15:19:3b:1f:c8:67:31:eb:3b:5b:2a:
                    15:0a:7b:f9:6b:e4:10:ee:44:be:19:d8:db:44:01:
                    fa:3a:56:f5:6c:4e:f3:60:aa:e4:cd:b2:ad:77:07:
                    45:ef:f1:d7:f5:fa:52:84:5c:03:4e:72:e0:a9:91:
                    c5:d9:d6:0a:84:33:98:31:f2:02:5b:3f:10:15:65:
                    76:d7
                Exponent: 65537 (0x10001)
        X509v3 extensions:
            X509v3 Subject Key Identifier: 
                C3:12:42:BA:A9:D8:4D:E0:C3:3E:BA:D7:47:41:A6:09:2F:6D:B4:E1
            X509v3 Authority Key Identifier: 
                C3:12:42:BA:A9:D8:4D:E0:C3:3E:BA:D7:47:41:A6:09:2F:6D:B4:E1
            X509v3 Basic Constraints: critical
                CA:TRUE
            X509v3 Key Usage: critical
                Digital Signature, Certificate Sign, CRL Sign
            X509v3 CRL Distribution Points: 
                Full Name:
                  URI:http://127.0.0.1:8888/root_crl.der
    Signature Algorithm: sha256WithRSAEncryption
    Signature Value:
        22:79:1a:b9:5d:fa:f5:c9:a3:88:22:c4:92:e6:64:6d:ce:a5:
        ae:2e:69:48:6a:9e:d5:11:c5:bb:b0:de:38:1b:5b:04:85:60:
        d6:64:14:ed:c2:62:02:7d:ad:d2:17:ad:ef:40:27:2b:50:59:
        4a:ff:88:c6:b3:16:5c:55:30:d9:23:bd:4f:0f:34:b7:7b:ed:
        7a:e1:f3:39:35:e9:18:6d:70:b1:2b:2a:e2:e5:cd:a1:54:8a:
        f9:f4:95:81:29:84:3f:95:2f:48:e0:35:3e:d9:cb:84:4d:3d:
        3e:3c:0e:8d:24:42:5f:19:e6:06:a5:87:ae:ba:af:07:02:e7:
        6a:83:0a:89:d4:a4:38:ce:05:6e:f6:15:f1:7a:53:bb:50:28:
        89:51:3f:f2:54:f1:d3:c4:28:07:a1:3e:55:e5:84:b8:df:58:
        af:c3:e7:81:c2:08:9c:35:e4:c4:86:75:a8:17:99:2c:a6:7f:
        46:30:9b:23:55:c5:d8:e2:6a:e4:08:a1:8b:dc:bc:5b:86:95:
        4a:79:fe:a6:93:3d:1a:5b:10:9a:2f:6a:45:2f:5d:c9:fa:95:
        2e:66:eb:52:df:88:a7:5f:42:8f:5f:46:07:79:8b:a7:49:82:
        d3:81:c6:3e:c2:5a:15:c4:83:69:30:49:4d:6e:ea:05:1e:d8:
        dc:29:ac:17
-----BEGIN CERTIFICATE-----
MIIDyDCCArCgAwIBAgIUJ17Pfr6qArmpx0IwQ/4OgAWR3QswDQYJKoZIhvcNAQEL
BQAwUDELMAkGA1UEBhMCVVMxCzAJBgNVBAgMAldBMQ8wDQYDVQQHDAZUYWNvbWEx
ETAPBgNVBAoMCFRlc3RuYXRzMRAwDgYDVQQDDAdSb290IENBMB4XDTIzMDUwMTE4
NTc1N1oXDTMzMDQyODE4NTc1N1owUDELMAkGA1UEBhMCVVMxCzAJBgNVBAgMAldB
MQ8wDQYDVQQHDAZUYWNvbWExETAPBgNVBAoMCFRlc3RuYXRzMRAwDgYDVQQDDAdS
b290IENBMIIBIjANBgkqhkiG9w0BAQEFAAOCAQ8AMIIBCgKCAQEA4iFrn+9Iud4i
+1s3CWjHtZJXUiTvhQDocYVND1uMxudPGfbjC3CjQX5x1A/W/fIayqpXkXaasoJi
YM7yAC7UvFjTYDBCpiiyUHtYAZ/7CmWwQNZ84rfajRnZpVHSRn4URqv6387+hAiY
Y0YdTYp3V2faFosyDHxB4qXs7n0gKOsDX/XmBdiLlnhvrimaUPfcljGGgbF46Ovv
XbvtQuyUxlRG7AVvGww2JMaoBn5cVrhDOxH0BgoFFRk7H8hnMes7WyoVCnv5a+QQ
7kS+GdjbRAH6Olb1bE7zYKrkzbKtdwdF7/HX9fpShFwDTnLgqZHF2dYKhDOYMfIC
Wz8QFWV21wIDAQABo4GZMIGWMB0GA1UdDgQWBBTDEkK6qdhN4MM+utdHQaYJL220
4TAfBgNVHSMEGDAWgBTDEkK6qdhN4MM+utdHQaYJL2204TAPBgNVHRMBAf8EBTAD
AQH/MA4GA1UdDwEB/wQEAwIBhjAzBgNVHR8ELDAqMCigJqAkhiJodHRwOi8vMTI3
LjAuMC4xOjg4ODgvcm9vdF9jcmwuZGVyMA0GCSqGSIb3DQEBCwUAA4IBAQAieRq5
Xfr1yaOIIsSS5mRtzqWuLmlIap7VEcW7sN44G1sEhWDWZBTtwmICfa3SF63vQCcr
UFlK/4jGsxZcVTDZI71PDzS3e+164fM5NekYbXCxKyri5c2hVIr59JWBKYQ/lS9I
4DU+2cuETT0+PA6NJEJfGeYGpYeuuq8HAudqgwqJ1KQ4zgVu9hXxelO7UCiJUT/y
VPHTxCgHoT5V5YS431ivw+eBwgicNeTEhnWoF5kspn9GMJsjVcXY4mrkCKGL3Lxb
hpVKef6mkz0aWxCaL2pFL13J+pUuZutS34inX0KPX0YHeYunSYLTgcY+wloVxINp
MElNbuoFHtjcKawX
-----END CERTIFICATE-----
