Certificate:
    Data:
        Version: 3 (0x2)
        Serial Number:
            3c:c4:82:66:f8:5d:a6:b6:c7:66:e1:b2:01:3f:e0:72:fc:72:61:33
        Signature Algorithm: sha256WithRSAEncryption
        Issuer: C=US, ST=WA, L=Tacoma, O=Testnats, CN=Intermediate CA 1
        Validity
            Not Before: May  1 19:33:37 2023 GMT
            Not After : Apr 28 19:33:37 2033 GMT
        Subject: C=US, ST=WA, L=Tacoma, O=Testnats, CN=TestServer1
        Subject Public Key Info:
            Public Key Algorithm: rsaEncryption
                Public-Key: (2048 bit)
                Modulus:
                    00:af:26:5c:50:c0:fa:62:b5:fd:3d:c1:9e:26:51:
                    58:62:04:37:b0:b5:6a:9b:6a:e3:22:3c:cd:ee:3c:
                    e7:8b:d3:e2:4c:08:1a:4d:63:c1:81:20:f4:53:a5:
                    5d:2f:d2:71:d8:af:e3:26:95:b4:27:14:46:7f:e2:
                    0a:73:12:a7:0e:ff:99:5a:29:f5:d0:65:96:b1:d1:
                    96:7f:0c:43:b8:71:f2:4b:21:e1:97:6c:1b:01:e5:
                    38:1a:39:44:72:d5:19:20:87:fe:90:4f:3b:97:f2:
                    7d:bd:57:97:4d:9d:56:50:89:5b:79:29:7a:3a:13:
                    97:08:61:c2:0c:a6:02:49:c9:8a:41:ab:8e:9f:25:
                    c9:33:18:f8:92:64:58:04:cc:a3:9d:cf:d4:d2:bd:
                    20:ab:8b:9d:55:df:fb:5b:23:ac:95:12:fa:6f:07:
                    93:3f:0e:03:86:c4:9b:25:06:21:9b:03:96:32:b8:
                    e0:0f:63:e2:1d:34:d1:41:35:19:09:c1:a0:dc:26:
                    b9:c8:66:fa:87:67:22:6e:0c:a6:e7:0f:24:64:b1:
                    4f:84:05:ef:ad:8e:1b:f2:f4:38:87:d3:e3:48:a5:
                    82:e0:66:89:1d:92:9a:59:67:a4:1d:03:6f:4d:a5:
                    fb:3b:c0:0b:73:a7:ab:8f:b4:10:25:8e:69:42:76:
                    82:5f
                Exponent: 65537 (0x10001)
        X509v3 extensions:
            X509v3 Subject Key Identifier: 
                43:16:E6:03:AF:37:B2:7B:BD:B3:C8:A2:9C:95:D7:FA:32:F8:9E:6F
            X509v3 Authority Key Identifier: 
                B5:91:6E:4F:64:B7:16:84:76:F9:B4:BE:99:CE:60:95:98:1A:8E:9D
            X509v3 Basic Constraints: critical
                CA:FALSE
            Netscape Cert Type: 
                SSL Client, SSL Server
            X509v3 Key Usage: critical
                Digital Signature, Non Repudiation, Key Encipherment
            X509v3 Extended Key Usage: 
                TLS Web Server Authentication, TLS Web Client Authentication
            X509v3 CRL Distribution Points: 
                Full Name:
                  URI:http://127.0.0.1:18888/intermediate1_crl.der
            Authority Information Access: 
                OCSP - URI:http://127.0.0.1:18888/
            X509v3 Subject Alternative Name: 
                DNS:localhost, IP Address:127.0.0.1
    Signature Algorithm: sha256WithRSAEncryption
    Signature Value:
        a3:87:9f:05:e4:38:61:f7:c4:5b:17:13:4b:2c:9d:a2:4d:e6:
        ad:93:54:c5:a3:00:27:0b:5c:45:c5:bd:f8:b6:a7:5a:2a:ec:
        dc:9b:59:8a:c7:59:e7:b9:86:f7:27:be:45:0d:d9:86:76:cf:
        00:71:ad:aa:cc:73:50:8c:68:63:b0:e2:3a:59:dd:85:fa:0d:
        f0:82:51:05:79:e6:d5:0e:0b:bb:ed:23:65:8f:d0:8b:01:df:
        86:74:bc:3a:22:90:e4:59:44:91:d5:44:d8:21:4d:4e:10:72:
        0a:12:2e:4a:20:5f:15:e7:16:0b:6f:76:f3:04:1f:da:44:50:
        3b:c3:b3:0f:fa:05:cf:6e:64:9c:65:e2:0d:38:28:31:c3:c3:
        b6:66:ef:80:d3:c4:5f:e9:f9:01:e9:ce:e6:99:46:a0:9d:ce:
        90:63:77:d2:85:21:d7:88:32:55:38:fe:10:07:69:cd:c8:06:
        b7:6f:49:98:bf:cd:be:4f:ab:44:ea:78:af:ab:01:c8:3e:fa:
        d9:54:bc:59:28:db:03:9b:1c:ee:e4:c3:ed:f3:97:30:c6:40:
        33:76:84:40:b2:b8:4d:b4:ca:a9:2d:d1:4d:17:92:ea:c0:c9:
        cb:f6:b1:d7:d3:c7:e6:75:15:00:ff:c7:d9:54:63:27:19:5c:
        96:a5:e5:d9
-----BEGIN CERTIFICATE-----
MIIEYjCCA0qgAwIBAgIUPMSCZvhdprbHZuGyAT/gcvxyYTMwDQYJKoZIhvcNAQEL
BQAwWjELMAkGA1UEBhMCVVMxCzAJBgNVBAgMAldBMQ8wDQYDVQQHDAZUYWNvbWEx
ETAPBgNVBAoMCFRlc3RuYXRzMRowGAYDVQQDDBFJbnRlcm1lZGlhdGUgQ0EgMTAe
Fw0yMzA1MDExOTMzMzdaFw0zMzA0MjgxOTMzMzdaMFQxCzAJBgNVBAYTAlVTMQsw
CQYDVQQIDAJXQTEPMA0GA1UEBwwGVGFjb21hMREwDwYDVQQKDAhUZXN0bmF0czEU
MBIGA1UEAwwLVGVzdFNlcnZlcjEwggEiMA0GCSqGSIb3DQEBAQUAA4IBDwAwggEK
AoIBAQCvJlxQwPpitf09wZ4mUVhiBDewtWqbauMiPM3uPOeL0+JMCBpNY8GBIPRT
pV0v0nHYr+MmlbQnFEZ/4gpzEqcO/5laKfXQZZax0ZZ/DEO4cfJLIeGXbBsB5Tga
OURy1Rkgh/6QTzuX8n29V5dNnVZQiVt5KXo6E5cIYcIMpgJJyYpBq46fJckzGPiS
ZFgEzKOdz9TSvSCri51V3/tbI6yVEvpvB5M/DgOGxJslBiGbA5YyuOAPY+IdNNFB
NRkJwaDcJrnIZvqHZyJuDKbnDyRksU+EBe+tjhvy9DiH0+NIpYLgZokdkppZZ6Qd
A29Npfs7wAtzp6uPtBAljmlCdoJfAgMBAAGjggEkMIIBIDAdBgNVHQ4EFgQUQxbm
A683snu9s8iinJXX+jL4nm8wHwYDVR0jBBgwFoAUtZFuT2S3FoR2+bS+mc5glZga
jp0wDAYDVR0TAQH/BAIwADARBglghkgBhvhCAQEEBAMCBsAwDgYDVR0PAQH/BAQD
AgXgMB0GA1UdJQQWMBQGCCsGAQUFBwMBBggrBgEFBQcDAjA9BgNVHR8ENjA0MDKg
MKAuhixodHRwOi8vMTI3LjAuMC4xOjE4ODg4L2ludGVybWVkaWF0ZTFfY3JsLmRl
cjAzBggrBgEFBQcBAQQnMCUwIwYIKwYBBQUHMAGGF2h0dHA6Ly8xMjcuMC4wLjE6
MTg4ODgvMBoGA1UdEQQTMBGCCWxvY2FsaG9zdIcEfwAAATANBgkqhkiG9w0BAQsF
AAOCAQEAo4efBeQ4YffEWxcTSyydok3mrZNUxaMAJwtcRcW9+LanWirs3JtZisdZ
57mG9ye+RQ3ZhnbPAHGtqsxzUIxoY7DiOlndhfoN8IJRBXnm1Q4Lu+0jZY/QiwHf
hnS8OiKQ5FlEkdVE2CFNThByChIuSiBfFecWC2928wQf2kRQO8OzD/oFz25knGXi
DTgoMcPDtmbvgNPEX+n5AenO5plGoJ3OkGN30oUh14gyVTj+EAdpzcgGt29JmL/N
vk+rROp4r6sByD762VS8WSjbA5sc7uTD7fOXMMZAM3aEQLK4TbTKqS3RTReS6sDJ
y/ax19PH5nUVAP/H2VRjJxlclqXl2Q==
-----END CERTIFICATE-----
Certificate:
    Data:
        Version: 3 (0x2)
        Serial Number:
            55:57:db:45:43:06:ce:52:63:59:b9:5a:26:78:fd:0d:94:68:95:9c
        Signature Algorithm: sha256WithRSAEncryption
        Issuer: C=US, ST=WA, L=Tacoma, O=Testnats, CN=Root CA
        Validity
            Not Before: May  1 19:01:15 2023 GMT
            Not After : Apr 28 19:01:15 2033 GMT
        Subject: C=US, ST=WA, L=Tacoma, O=Testnats, CN=Intermediate CA 1
        Subject Public Key Info:
            Public Key Algorithm: rsaEncryption
                Public-Key: (2048 bit)
                Modulus:
                    00:bc:c6:84:2d:c2:ab:5d:05:d7:65:a8:e2:15:74:
                    d8:f2:f1:55:11:45:93:96:4c:a5:dc:cb:44:f5:f4:
                    14:7e:46:02:59:e8:ae:78:59:69:21:58:f7:16:38:
                    b9:c2:c2:60:d8:76:ab:a1:39:ba:0b:a3:03:17:e4:
                    a1:cb:5d:1a:0c:62:71:24:64:b0:00:f0:6f:4c:af:
                    08:62:8c:dc:4f:e0:d7:d4:55:2c:db:36:fc:a9:aa:
                    d7:58:27:e4:99:cb:dc:29:d9:ea:35:16:cb:2e:be:
                    04:b2:82:58:f4:e5:5c:07:db:12:8e:e3:3c:9a:5e:
                    90:4b:c5:a3:d4:21:96:5f:e1:8f:f7:cb:9e:db:e0:
                    10:a0:6c:a2:1e:30:17:6c:32:9f:7b:43:a4:9f:d3:
                    6b:33:1b:18:cd:a4:ad:33:48:a3:98:b0:2b:c8:22:
                    74:17:71:d8:f1:64:21:55:e1:33:bc:7f:74:5f:a5:
                    a6:a2:9b:58:2f:db:ed:c7:c1:e5:36:2e:86:26:ad:
                    c6:fe:b8:00:85:6e:7c:ed:fd:4a:c6:a0:d9:b2:3f:
                    4e:bd:fa:08:52:c8:5d:31:13:86:bd:3f:ec:7a:d8:
                    3a:15:e2:71:af:ec:00:88:7e:a6:e8:e1:9d:ab:57:
                    5a:8a:1f:f8:e2:4d:29:58:53:79:25:f0:9e:d9:18:
                    40:27
                Exponent: 65537 (0x10001)
        X509v3 extensions:
            X509v3 Subject Key Identifier: 
                B5:91:6E:4F:64:B7:16:84:76:F9:B4:BE:99:CE:60:95:98:1A:8E:9D
            X509v3 Authority Key Identifier: 
                C3:12:42:BA:A9:D8:4D:E0:C3:3E:BA:D7:47:41:A6:09:2F:6D:B4:E1
            X509v3 Basic Constraints: critical
                CA:TRUE, pathlen:0
            X509v3 Key Usage: critical
                Digital Signature, Certificate Sign, CRL Sign
            X509v3 CRL Distribution Points: 
                Full Name:
                  URI:http://127.0.0.1:8888/root_crl.der
            Authority Information Access: 
                OCSP - URI:http://127.0.0.1:8888/
    Signature Algorithm: sha256WithRSAEncryption
    Signature Value:
        b1:48:16:3b:d7:91:d0:4d:54:09:cb:ab:c7:41:4f:35:12:8b:
        a6:e8:84:11:49:a9:04:91:41:25:7c:02:38:b2:19:a0:e9:2e:
        d5:d6:7a:26:c1:1a:f8:f1:c6:51:92:68:af:c8:6e:5b:df:28:
        40:b8:99:94:d5:43:7d:e3:68:75:94:26:56:11:21:9e:50:b3:
        36:7b:f8:5f:33:76:64:71:04:26:2b:bb:2c:83:33:89:ba:74:
        c1:e9:9d:eb:c0:86:4b:4d:6f:f8:4d:55:5a:3d:f6:55:95:33:
        0f:b8:f0:53:2b:93:a6:da:8d:5c:1a:e8:30:22:55:67:44:6e:
        17:c4:57:05:0d:ce:fc:61:dd:b1:3c:b0:66:55:f4:42:d0:ce:
        94:7d:6a:82:bd:32:ed:2f:21:ff:c7:70:ff:48:9d:10:4a:71:
        be:a8:37:e5:0f:f4:79:1e:7d:a2:f1:6a:6b:2c:e8:03:20:ce:
        80:94:d2:38:80:bc:7e:56:c5:77:62:94:c0:b7:40:11:4d:ba:
        98:4b:2e:52:03:66:68:36:ab:d1:0f:3e:b5:92:a3:95:9d:a4:
        ea:d3:8a:14:41:6d:86:24:89:aa:d7:29:20:c8:52:d5:bf:8d:
        3b:09:52:dd:89:8c:2c:85:40:b5:9f:cc:47:63:ca:3a:e0:c9:
        91:5c:43:a9
-----BEGIN CERTIFICATE-----
MIIECTCCAvGgAwIBAgIUVVfbRUMGzlJjWblaJnj9DZRolZwwDQYJKoZIhvcNAQEL
BQAwUDELMAkGA1UEBhMCVVMxCzAJBgNVBAgMAldBMQ8wDQYDVQQHDAZUYWNvbWEx
ETAPBgNVBAoMCFRlc3RuYXRzMRAwDgYDVQQDDAdSb290IENBMB4XDTIzMDUwMTE5
MDExNVoXDTMzMDQyODE5MDExNVowWjELMAkGA1UEBhMCVVMxCzAJBgNVBAgMAldB
MQ8wDQYDVQQHDAZUYWNvbWExETAPBgNVBAoMCFRlc3RuYXRzMRowGAYDVQQDDBFJ
bnRlcm1lZGlhdGUgQ0EgMTCCASIwDQYJKoZIhvcNAQEBBQADggEPADCCAQoCggEB
ALzGhC3Cq10F12Wo4hV02PLxVRFFk5ZMpdzLRPX0FH5GAlnornhZaSFY9xY4ucLC
YNh2q6E5ugujAxfkoctdGgxicSRksADwb0yvCGKM3E/g19RVLNs2/Kmq11gn5JnL
3CnZ6jUWyy6+BLKCWPTlXAfbEo7jPJpekEvFo9Qhll/hj/fLntvgEKBsoh4wF2wy
n3tDpJ/TazMbGM2krTNIo5iwK8gidBdx2PFkIVXhM7x/dF+lpqKbWC/b7cfB5TYu
hiatxv64AIVufO39Ssag2bI/Tr36CFLIXTEThr0/7HrYOhXica/sAIh+pujhnatX
Woof+OJNKVhTeSXwntkYQCcCAwEAAaOB0DCBzTAdBgNVHQ4EFgQUtZFuT2S3FoR2
+bS+mc5glZgajp0wHwYDVR0jBBgwFoAUwxJCuqnYTeDDPrrXR0GmCS9ttOEwEgYD
VR0TAQH/BAgwBgEB/wIBADAOBgNVHQ8BAf8EBAMCAYYwMwYDVR0fBCwwKjAooCag
JIYiaHR0cDovLzEyNy4wLjAuMTo4ODg4L3Jvb3RfY3JsLmRlcjAyBggrBgEFBQcB
AQQmMCQwIgYIKwYBBQUHMAGGFmh0dHA6Ly8xMjcuMC4wLjE6ODg4OC8wDQYJKoZI
hvcNAQELBQADggEBALFIFjvXkdBNVAnLq8dBTzUSi6bohBFJqQSRQSV8AjiyGaDp
LtXWeibBGvjxxlGSaK/IblvfKEC4mZTVQ33jaHWUJlYRIZ5QszZ7+F8zdmRxBCYr
uyyDM4m6dMHpnevAhktNb/hNVVo99lWVMw+48FMrk6bajVwa6DAiVWdEbhfEVwUN
zvxh3bE8sGZV9ELQzpR9aoK9Mu0vIf/HcP9InRBKcb6oN+UP9HkefaLxamss6AMg
zoCU0jiAvH5WxXdilMC3QBFNuphLLlIDZmg2q9EPPrWSo5WdpOrTihRBbYYkiarX
KSDIUtW/jTsJUt2JjCyFQLWfzEdjyjrgyZFcQ6k=
-----END CERTIFICATE-----
