Certificate:
    Data:
        Version: 3 (0x2)
        Serial Number:
            2e:91:da:29:59:ff:c4:64:bf:02:bc:27:bb:e3:35:4e:5b:36:f7:91
        Signature Algorithm: sha256WithRSAEncryption
        Issuer: C=US, ST=WA, L=Tacoma, O=Testnats, CN=Intermediate CA 1
        Validity
            Not Before: May  1 19:33:53 2023 GMT
            Not After : Apr 28 19:33:53 2033 GMT
        Subject: C=US, ST=WA, L=Tacoma, O=Testnats, CN=TestServer2
        Subject Public Key Info:
            Public Key Algorithm: rsaEncryption
                Public-Key: (2048 bit)
                Modulus:
                    00:ac:48:ce:a7:b2:ad:7a:68:01:55:3f:86:20:7e:
                    bb:26:e6:88:f3:ae:04:15:7d:d9:64:98:85:bc:eb:
                    bd:d8:0a:c7:26:c4:8e:27:56:8c:a8:9f:51:37:a9:
                    ec:8a:dc:af:27:05:0c:f5:c0:19:b1:2c:0d:56:66:
                    7b:7e:b1:8f:ab:34:61:56:37:a8:ab:51:d6:1d:e6:
                    a7:56:b2:51:72:57:9b:c5:87:84:6c:ef:e6:18:d4:
                    45:b8:ef:52:72:11:02:81:61:f2:36:63:25:18:31:
                    7f:c7:91:89:c3:b0:73:13:f0:26:1f:a1:4f:8c:ff:
                    94:1c:75:a6:be:38:7d:81:06:33:dd:7b:86:81:c5:
                    1f:d2:5d:f6:ea:3f:9f:ab:fb:e7:97:3c:72:ea:b3:
                    83:ab:49:88:ac:a9:4b:81:db:fa:e3:bf:79:d9:6e:
                    90:bf:8f:68:d8:05:f8:52:ad:98:41:29:e0:2a:18:
                    98:b6:b2:61:78:02:02:52:85:02:e0:63:f4:a0:55:
                    80:c9:66:8b:ac:4f:8b:36:f4:56:8f:cf:bd:67:86:
                    72:92:0b:f9:73:7b:05:cc:3d:91:ed:ed:4f:f0:8f:
                    36:99:e5:51:7f:ee:9e:fb:e5:5c:d0:39:a2:f5:51:
                    06:92:3c:ad:cc:59:9d:0a:81:50:26:30:01:e9:f4:
                    b1:e9
                Exponent: 65537 (0x10001)
        X509v3 extensions:
            X509v3 Subject Key Identifier: 
                CD:65:B9:5C:48:35:F7:1E:85:6E:94:50:78:72:BB:3F:F7:BC:22:A6
            X509v3 Authority Key Identifier: 
                B5:91:6E:4F:64:B7:16:84:76:F9:B4:BE:99:CE:60:95:98:1A:8E:9D
            X509v3 Basic Constraints: critical
                CA:FALSE
            Netscape Cert Type: 
                SSL Client, SSL Server
            X509v3 Key Usage: critical
                Digital Signature, Non Repudiation, Key Encipherment
            X509v3 Extended Key Usage: 
                TLS Web Server Authentication, TLS Web Client Authentication
            X509v3 CRL Distribution Points: 
                Full Name:
                  URI:http://127.0.0.1:18888/intermediate1_crl.der
            Authority Information Access: 
                OCSP - URI:http://127.0.0.1:18888/
            X509v3 Subject Alternative Name: 
                DNS:localhost, IP Address:127.0.0.1
    Signature Algorithm: sha256WithRSAEncryption
    Signature Value:
        6f:de:f3:92:b2:8b:57:61:7a:b9:06:49:3e:af:e0:1c:3a:d4:
        42:52:fe:d0:7d:97:8a:9b:d0:6d:b9:f3:e6:8b:2a:40:ce:aa:
        ed:bb:ce:21:e8:ae:32:9d:eb:5a:00:e0:c1:3a:d7:40:74:1b:
        43:e4:43:f0:61:bf:40:06:75:52:1b:b9:f4:b5:32:55:94:f5:
        84:98:90:cc:27:92:91:b7:3d:8e:f1:12:bf:37:1a:8a:50:41:
        3a:14:0c:cf:93:fe:57:97:7b:fe:af:b9:c0:c2:d6:bb:20:e4:
        0a:6f:12:0b:60:a6:cc:59:46:db:99:db:61:71:d3:a7:f5:a1:
        d0:d6:81:87:57:a3:dd:b6:e1:ab:2f:4f:b6:51:21:ec:a6:95:
        df:d3:ab:e5:a1:67:a3:ba:b1:b9:71:39:a1:3b:db:5e:c5:6f:
        b1:34:27:ae:6d:f6:67:4c:7d:7c:6d:12:37:6f:b5:0b:5a:85:
        aa:5d:fd:03:de:59:b5:20:7a:ea:84:a0:a5:75:60:12:12:08:
        77:0e:46:d6:fa:57:fa:b1:43:42:54:38:d7:66:67:cd:fc:b6:
        f9:4c:fe:99:71:2b:d5:a6:13:2f:2e:f0:a3:9e:fc:47:03:31:
        79:38:e3:50:8a:de:81:97:80:9e:46:71:5c:9f:e5:de:0c:49:
        fc:f5:61:1c
-----BEGIN CERTIFICATE-----
MIIEYjCCA0qgAwIBAgIULpHaKVn/xGS/Arwnu+M1Tls295EwDQYJKoZIhvcNAQEL
BQAwWjELMAkGA1UEBhMCVVMxCzAJBgNVBAgMAldBMQ8wDQYDVQQHDAZUYWNvbWEx
ETAPBgNVBAoMCFRlc3RuYXRzMRowGAYDVQQDDBFJbnRlcm1lZGlhdGUgQ0EgMTAe
Fw0yMzA1MDExOTMzNTNaFw0zMzA0MjgxOTMzNTNaMFQxCzAJBgNVBAYTAlVTMQsw
CQYDVQQIDAJXQTEPMA0GA1UEBwwGVGFjb21hMREwDwYDVQQKDAhUZXN0bmF0czEU
MBIGA1UEAwwLVGVzdFNlcnZlcjIwggEiMA0GCSqGSIb3DQEBAQUAA4IBDwAwggEK
AoIBAQCsSM6nsq16aAFVP4Ygfrsm5ojzrgQVfdlkmIW8673YCscmxI4nVoyon1E3
qeyK3K8nBQz1wBmxLA1WZnt+sY+rNGFWN6irUdYd5qdWslFyV5vFh4Rs7+YY1EW4
71JyEQKBYfI2YyUYMX/HkYnDsHMT8CYfoU+M/5Qcdaa+OH2BBjPde4aBxR/SXfbq
P5+r++eXPHLqs4OrSYisqUuB2/rjv3nZbpC/j2jYBfhSrZhBKeAqGJi2smF4AgJS
hQLgY/SgVYDJZousT4s29FaPz71nhnKSC/lzewXMPZHt7U/wjzaZ5VF/7p775VzQ
OaL1UQaSPK3MWZ0KgVAmMAHp9LHpAgMBAAGjggEkMIIBIDAdBgNVHQ4EFgQUzWW5
XEg19x6FbpRQeHK7P/e8IqYwHwYDVR0jBBgwFoAUtZFuT2S3FoR2+bS+mc5glZga
jp0wDAYDVR0TAQH/BAIwADARBglghkgBhvhCAQEEBAMCBsAwDgYDVR0PAQH/BAQD
AgXgMB0GA1UdJQQWMBQGCCsGAQUFBwMBBggrBgEFBQcDAjA9BgNVHR8ENjA0MDKg
MKAuhixodHRwOi8vMTI3LjAuMC4xOjE4ODg4L2ludGVybWVkaWF0ZTFfY3JsLmRl
cjAzBggrBgEFBQcBAQQnMCUwIwYIKwYBBQUHMAGGF2h0dHA6Ly8xMjcuMC4wLjE6
MTg4ODgvMBoGA1UdEQQTMBGCCWxvY2FsaG9zdIcEfwAAATANBgkqhkiG9w0BAQsF
AAOCAQEAb97zkrKLV2F6uQZJPq/gHDrUQlL+0H2XipvQbbnz5osqQM6q7bvOIeiu
Mp3rWgDgwTrXQHQbQ+RD8GG/QAZ1Uhu59LUyVZT1hJiQzCeSkbc9jvESvzcailBB
OhQMz5P+V5d7/q+5wMLWuyDkCm8SC2CmzFlG25nbYXHTp/Wh0NaBh1ej3bbhqy9P
tlEh7KaV39Or5aFno7qxuXE5oTvbXsVvsTQnrm32Z0x9fG0SN2+1C1qFql39A95Z
tSB66oSgpXVgEhIIdw5G1vpX+rFDQlQ412Znzfy2+Uz+mXEr1aYTLy7wo578RwMx
eTjjUIregZeAnkZxXJ/l3gxJ/PVhHA==
-----END CERTIFICATE-----
Certificate:
    Data:
        Version: 3 (0x2)
        Serial Number:
            55:57:db:45:43:06:ce:52:63:59:b9:5a:26:78:fd:0d:94:68:95:9c
        Signature Algorithm: sha256WithRSAEncryption
        Issuer: C=US, ST=WA, L=Tacoma, O=Testnats, CN=Root CA
        Validity
            Not Before: May  1 19:01:15 2023 GMT
            Not After : Apr 28 19:01:15 2033 GMT
        Subject: C=US, ST=WA, L=Tacoma, O=Testnats, CN=Intermediate CA 1
        Subject Public Key Info:
            Public Key Algorithm: rsaEncryption
                Public-Key: (2048 bit)
                Modulus:
                    00:bc:c6:84:2d:c2:ab:5d:05:d7:65:a8:e2:15:74:
                    d8:f2:f1:55:11:45:93:96:4c:a5:dc:cb:44:f5:f4:
                    14:7e:46:02:59:e8:ae:78:59:69:21:58:f7:16:38:
                    b9:c2:c2:60:d8:76:ab:a1:39:ba:0b:a3:03:17:e4:
                    a1:cb:5d:1a:0c:62:71:24:64:b0:00:f0:6f:4c:af:
                    08:62:8c:dc:4f:e0:d7:d4:55:2c:db:36:fc:a9:aa:
                    d7:58:27:e4:99:cb:dc:29:d9:ea:35:16:cb:2e:be:
                    04:b2:82:58:f4:e5:5c:07:db:12:8e:e3:3c:9a:5e:
                    90:4b:c5:a3:d4:21:96:5f:e1:8f:f7:cb:9e:db:e0:
                    10:a0:6c:a2:1e:30:17:6c:32:9f:7b:43:a4:9f:d3:
                    6b:33:1b:18:cd:a4:ad:33:48:a3:98:b0:2b:c8:22:
                    74:17:71:d8:f1:64:21:55:e1:33:bc:7f:74:5f:a5:
                    a6:a2:9b:58:2f:db:ed:c7:c1:e5:36:2e:86:26:ad:
                    c6:fe:b8:00:85:6e:7c:ed:fd:4a:c6:a0:d9:b2:3f:
                    4e:bd:fa:08:52:c8:5d:31:13:86:bd:3f:ec:7a:d8:
                    3a:15:e2:71:af:ec:00:88:7e:a6:e8:e1:9d:ab:57:
                    5a:8a:1f:f8:e2:4d:29:58:53:79:25:f0:9e:d9:18:
                    40:27
                Exponent: 65537 (0x10001)
        X509v3 extensions:
            X509v3 Subject Key Identifier: 
                B5:91:6E:4F:64:B7:16:84:76:F9:B4:BE:99:CE:60:95:98:1A:8E:9D
            X509v3 Authority Key Identifier: 
                C3:12:42:BA:A9:D8:4D:E0:C3:3E:BA:D7:47:41:A6:09:2F:6D:B4:E1
            X509v3 Basic Constraints: critical
                CA:TRUE, pathlen:0
            X509v3 Key Usage: critical
                Digital Signature, Certificate Sign, CRL Sign
            X509v3 CRL Distribution Points: 
                Full Name:
                  URI:http://127.0.0.1:8888/root_crl.der
            Authority Information Access: 
                OCSP - URI:http://127.0.0.1:8888/
    Signature Algorithm: sha256WithRSAEncryption
    Signature Value:
        b1:48:16:3b:d7:91:d0:4d:54:09:cb:ab:c7:41:4f:35:12:8b:
        a6:e8:84:11:49:a9:04:91:41:25:7c:02:38:b2:19:a0:e9:2e:
        d5:d6:7a:26:c1:1a:f8:f1:c6:51:92:68:af:c8:6e:5b:df:28:
        40:b8:99:94:d5:43:7d:e3:68:75:94:26:56:11:21:9e:50:b3:
        36:7b:f8:5f:33:76:64:71:04:26:2b:bb:2c:83:33:89:ba:74:
        c1:e9:9d:eb:c0:86:4b:4d:6f:f8:4d:55:5a:3d:f6:55:95:33:
        0f:b8:f0:53:2b:93:a6:da:8d:5c:1a:e8:30:22:55:67:44:6e:
        17:c4:57:05:0d:ce:fc:61:dd:b1:3c:b0:66:55:f4:42:d0:ce:
        94:7d:6a:82:bd:32:ed:2f:21:ff:c7:70:ff:48:9d:10:4a:71:
        be:a8:37:e5:0f:f4:79:1e:7d:a2:f1:6a:6b:2c:e8:03:20:ce:
        80:94:d2:38:80:bc:7e:56:c5:77:62:94:c0:b7:40:11:4d:ba:
        98:4b:2e:52:03:66:68:36:ab:d1:0f:3e:b5:92:a3:95:9d:a4:
        ea:d3:8a:14:41:6d:86:24:89:aa:d7:29:20:c8:52:d5:bf:8d:
        3b:09:52:dd:89:8c:2c:85:40:b5:9f:cc:47:63:ca:3a:e0:c9:
        91:5c:43:a9
-----BEGIN CERTIFICATE-----
MIIECTCCAvGgAwIBAgIUVVfbRUMGzlJjWblaJnj9DZRolZwwDQYJKoZIhvcNAQEL
BQAwUDELMAkGA1UEBhMCVVMxCzAJBgNVBAgMAldBMQ8wDQYDVQQHDAZUYWNvbWEx
ETAPBgNVBAoMCFRlc3RuYXRzMRAwDgYDVQQDDAdSb290IENBMB4XDTIzMDUwMTE5
MDExNVoXDTMzMDQyODE5MDExNVowWjELMAkGA1UEBhMCVVMxCzAJBgNVBAgMAldB
MQ8wDQYDVQQHDAZUYWNvbWExETAPBgNVBAoMCFRlc3RuYXRzMRowGAYDVQQDDBFJ
bnRlcm1lZGlhdGUgQ0EgMTCCASIwDQYJKoZIhvcNAQEBBQADggEPADCCAQoCggEB
ALzGhC3Cq10F12Wo4hV02PLxVRFFk5ZMpdzLRPX0FH5GAlnornhZaSFY9xY4ucLC
YNh2q6E5ugujAxfkoctdGgxicSRksADwb0yvCGKM3E/g19RVLNs2/Kmq11gn5JnL
3CnZ6jUWyy6+BLKCWPTlXAfbEo7jPJpekEvFo9Qhll/hj/fLntvgEKBsoh4wF2wy
n3tDpJ/TazMbGM2krTNIo5iwK8gidBdx2PFkIVXhM7x/dF+lpqKbWC/b7cfB5TYu
hiatxv64AIVufO39Ssag2bI/Tr36CFLIXTEThr0/7HrYOhXica/sAIh+pujhnatX
Woof+OJNKVhTeSXwntkYQCcCAwEAAaOB0DCBzTAdBgNVHQ4EFgQUtZFuT2S3FoR2
+bS+mc5glZgajp0wHwYDVR0jBBgwFoAUwxJCuqnYTeDDPrrXR0GmCS9ttOEwEgYD
VR0TAQH/BAgwBgEB/wIBADAOBgNVHQ8BAf8EBAMCAYYwMwYDVR0fBCwwKjAooCag
JIYiaHR0cDovLzEyNy4wLjAuMTo4ODg4L3Jvb3RfY3JsLmRlcjAyBggrBgEFBQcB
AQQmMCQwIgYIKwYBBQUHMAGGFmh0dHA6Ly8xMjcuMC4wLjE6ODg4OC8wDQYJKoZI
hvcNAQELBQADggEBALFIFjvXkdBNVAnLq8dBTzUSi6bohBFJqQSRQSV8AjiyGaDp
LtXWeibBGvjxxlGSaK/IblvfKEC4mZTVQ33jaHWUJlYRIZ5QszZ7+F8zdmRxBCYr
uyyDM4m6dMHpnevAhktNb/hNVVo99lWVMw+48FMrk6bajVwa6DAiVWdEbhfEVwUN
zvxh3bE8sGZV9ELQzpR9aoK9Mu0vIf/HcP9InRBKcb6oN+UP9HkefaLxamss6AMg
zoCU0jiAvH5WxXdilMC3QBFNuphLLlIDZmg2q9EPPrWSo5WdpOrTihRBbYYkiarX
KSDIUtW/jTsJUt2JjCyFQLWfzEdjyjrgyZFcQ6k=
-----END CERTIFICATE-----
