Certificate:
    Data:
        Version: 3 (0x2)
        Serial Number:
            3c:c4:82:66:f8:5d:a6:b6:c7:66:e1:b2:01:3f:e0:72:fc:72:61:33
        Signature Algorithm: sha256WithRSAEncryption
        Issuer: C=US, ST=WA, L=Tacoma, O=Testnats, CN=Intermediate CA 1
        Validity
            Not Before: May  1 19:33:37 2023 GMT
            Not After : Apr 28 19:33:37 2033 GMT
        Subject: C=US, ST=WA, L=Tacoma, O=Testnats, CN=TestServer1
        Subject Public Key Info:
            Public Key Algorithm: rsaEncryption
                Public-Key: (2048 bit)
                Modulus:
                    00:af:26:5c:50:c0:fa:62:b5:fd:3d:c1:9e:26:51:
                    58:62:04:37:b0:b5:6a:9b:6a:e3:22:3c:cd:ee:3c:
                    e7:8b:d3:e2:4c:08:1a:4d:63:c1:81:20:f4:53:a5:
                    5d:2f:d2:71:d8:af:e3:26:95:b4:27:14:46:7f:e2:
                    0a:73:12:a7:0e:ff:99:5a:29:f5:d0:65:96:b1:d1:
                    96:7f:0c:43:b8:71:f2:4b:21:e1:97:6c:1b:01:e5:
                    38:1a:39:44:72:d5:19:20:87:fe:90:4f:3b:97:f2:
                    7d:bd:57:97:4d:9d:56:50:89:5b:79:29:7a:3a:13:
                    97:08:61:c2:0c:a6:02:49:c9:8a:41:ab:8e:9f:25:
                    c9:33:18:f8:92:64:58:04:cc:a3:9d:cf:d4:d2:bd:
                    20:ab:8b:9d:55:df:fb:5b:23:ac:95:12:fa:6f:07:
                    93:3f:0e:03:86:c4:9b:25:06:21:9b:03:96:32:b8:
                    e0:0f:63:e2:1d:34:d1:41:35:19:09:c1:a0:dc:26:
                    b9:c8:66:fa:87:67:22:6e:0c:a6:e7:0f:24:64:b1:
                    4f:84:05:ef:ad:8e:1b:f2:f4:38:87:d3:e3:48:a5:
                    82:e0:66:89:1d:92:9a:59:67:a4:1d:03:6f:4d:a5:
                    fb:3b:c0:0b:73:a7:ab:8f:b4:10:25:8e:69:42:76:
                    82:5f
                Exponent: 65537 (0x10001)
        X509v3 extensions:
            X509v3 Subject Key Identifier: 
                43:16:E6:03:AF:37:B2:7B:BD:B3:C8:A2:9C:95:D7:FA:32:F8:9E:6F
            X509v3 Authority Key Identifier: 
                B5:91:6E:4F:64:B7:16:84:76:F9:B4:BE:99:CE:60:95:98:1A:8E:9D
            X509v3 Basic Constraints: critical
                CA:FALSE
            Netscape Cert Type: 
                SSL Client, SSL Server
            X509v3 Key Usage: critical
                Digital Signature, Non Repudiation, Key Encipherment
            X509v3 Extended Key Usage: 
                TLS Web Server Authentication, TLS Web Client Authentication
            X509v3 CRL Distribution Points: 
                Full Name:
                  URI:http://127.0.0.1:18888/intermediate1_crl.der
            Authority Information Access: 
                OCSP - URI:http://127.0.0.1:18888/
            X509v3 Subject Alternative Name: 
                DNS:localhost, IP Address:127.0.0.1
    Signature Algorithm: sha256WithRSAEncryption
    Signature Value:
        a3:87:9f:05:e4:38:61:f7:c4:5b:17:13:4b:2c:9d:a2:4d:e6:
        ad:93:54:c5:a3:00:27:0b:5c:45:c5:bd:f8:b6:a7:5a:2a:ec:
        dc:9b:59:8a:c7:59:e7:b9:86:f7:27:be:45:0d:d9:86:76:cf:
        00:71:ad:aa:cc:73:50:8c:68:63:b0:e2:3a:59:dd:85:fa:0d:
        f0:82:51:05:79:e6:d5:0e:0b:bb:ed:23:65:8f:d0:8b:01:df:
        86:74:bc:3a:22:90:e4:59:44:91:d5:44:d8:21:4d:4e:10:72:
        0a:12:2e:4a:20:5f:15:e7:16:0b:6f:76:f3:04:1f:da:44:50:
        3b:c3:b3:0f:fa:05:cf:6e:64:9c:65:e2:0d:38:28:31:c3:c3:
        b6:66:ef:80:d3:c4:5f:e9:f9:01:e9:ce:e6:99:46:a0:9d:ce:
        90:63:77:d2:85:21:d7:88:32:55:38:fe:10:07:69:cd:c8:06:
        b7:6f:49:98:bf:cd:be:4f:ab:44:ea:78:af:ab:01:c8:3e:fa:
        d9:54:bc:59:28:db:03:9b:1c:ee:e4:c3:ed:f3:97:30:c6:40:
        33:76:84:40:b2:b8:4d:b4:ca:a9:2d:d1:4d:17:92:ea:c0:c9:
        cb:f6:b1:d7:d3:c7:e6:75:15:00:ff:c7:d9:54:63:27:19:5c:
        96:a5:e5:d9
-----BEGIN CERTIFICATE-----
MIIEYjCCA0qgAwIBAgIUPMSCZvhdprbHZuGyAT/gcvxyYTMwDQYJKoZIhvcNAQEL
BQAwWjELMAkGA1UEBhMCVVMxCzAJBgNVBAgMAldBMQ8wDQYDVQQHDAZUYWNvbWEx
ETAPBgNVBAoMCFRlc3RuYXRzMRowGAYDVQQDDBFJbnRlcm1lZGlhdGUgQ0EgMTAe
Fw0yMzA1MDExOTMzMzdaFw0zMzA0MjgxOTMzMzdaMFQxCzAJBgNVBAYTAlVTMQsw
CQYDVQQIDAJXQTEPMA0GA1UEBwwGVGFjb21hMREwDwYDVQQKDAhUZXN0bmF0czEU
MBIGA1UEAwwLVGVzdFNlcnZlcjEwggEiMA0GCSqGSIb3DQEBAQUAA4IBDwAwggEK
AoIBAQCvJlxQwPpitf09wZ4mUVhiBDewtWqbauMiPM3uPOeL0+JMCBpNY8GBIPRT
pV0v0nHYr+MmlbQnFEZ/4gpzEqcO/5laKfXQZZax0ZZ/DEO4cfJLIeGXbBsB5Tga
OURy1Rkgh/6QTzuX8n29V5dNnVZQiVt5KXo6E5cIYcIMpgJJyYpBq46fJckzGPiS
ZFgEzKOdz9TSvSCri51V3/tbI6yVEvpvB5M/DgOGxJslBiGbA5YyuOAPY+IdNNFB
NRkJwaDcJrnIZvqHZyJuDKbnDyRksU+EBe+tjhvy9DiH0+NIpYLgZokdkppZZ6Qd
A29Npfs7wAtzp6uPtBAljmlCdoJfAgMBAAGjggEkMIIBIDAdBgNVHQ4EFgQUQxbm
A683snu9s8iinJXX+jL4nm8wHwYDVR0jBBgwFoAUtZFuT2S3FoR2+bS+mc5glZga
jp0wDAYDVR0TAQH/BAIwADARBglghkgBhvhCAQEEBAMCBsAwDgYDVR0PAQH/BAQD
AgXgMB0GA1UdJQQWMBQGCCsGAQUFBwMBBggrBgEFBQcDAjA9BgNVHR8ENjA0MDKg
MKAuhixodHRwOi8vMTI3LjAuMC4xOjE4ODg4L2ludGVybWVkaWF0ZTFfY3JsLmRl
cjAzBggrBgEFBQcBAQQnMCUwIwYIKwYBBQUHMAGGF2h0dHA6Ly8xMjcuMC4wLjE6
MTg4ODgvMBoGA1UdEQQTMBGCCWxvY2FsaG9zdIcEfwAAATANBgkqhkiG9w0BAQsF
AAOCAQEAo4efBeQ4YffEWxcTSyydok3mrZNUxaMAJwtcRcW9+LanWirs3JtZisdZ
57mG9ye+RQ3ZhnbPAHGtqsxzUIxoY7DiOlndhfoN8IJRBXnm1Q4Lu+0jZY/QiwHf
hnS8OiKQ5FlEkdVE2CFNThByChIuSiBfFecWC2928wQf2kRQO8OzD/oFz25knGXi
DTgoMcPDtmbvgNPEX+n5AenO5plGoJ3OkGN30oUh14gyVTj+EAdpzcgGt29JmL/N
vk+rROp4r6sByD762VS8WSjbA5sc7uTD7fOXMMZAM3aEQLK4TbTKqS3RTReS6sDJ
y/ax19PH5nUVAP/H2VRjJxlclqXl2Q==
-----END CERTIFICATE-----
