Certificate:
    Data:
        Version: 3 (0x2)
        Serial Number:
            2e:91:da:29:59:ff:c4:64:bf:02:bc:27:bb:e3:35:4e:5b:36:f7:91
        Signature Algorithm: sha256WithRSAEncryption
        Issuer: C=US, ST=WA, L=Tacoma, O=Testnats, CN=Intermediate CA 1
        Validity
            Not Before: May  1 19:33:53 2023 GMT
            Not After : Apr 28 19:33:53 2033 GMT
        Subject: C=US, ST=WA, L=Tacoma, O=Testnats, CN=TestServer2
        Subject Public Key Info:
            Public Key Algorithm: rsaEncryption
                Public-Key: (2048 bit)
                Modulus:
                    00:ac:48:ce:a7:b2:ad:7a:68:01:55:3f:86:20:7e:
                    bb:26:e6:88:f3:ae:04:15:7d:d9:64:98:85:bc:eb:
                    bd:d8:0a:c7:26:c4:8e:27:56:8c:a8:9f:51:37:a9:
                    ec:8a:dc:af:27:05:0c:f5:c0:19:b1:2c:0d:56:66:
                    7b:7e:b1:8f:ab:34:61:56:37:a8:ab:51:d6:1d:e6:
                    a7:56:b2:51:72:57:9b:c5:87:84:6c:ef:e6:18:d4:
                    45:b8:ef:52:72:11:02:81:61:f2:36:63:25:18:31:
                    7f:c7:91:89:c3:b0:73:13:f0:26:1f:a1:4f:8c:ff:
                    94:1c:75:a6:be:38:7d:81:06:33:dd:7b:86:81:c5:
                    1f:d2:5d:f6:ea:3f:9f:ab:fb:e7:97:3c:72:ea:b3:
                    83:ab:49:88:ac:a9:4b:81:db:fa:e3:bf:79:d9:6e:
                    90:bf:8f:68:d8:05:f8:52:ad:98:41:29:e0:2a:18:
                    98:b6:b2:61:78:02:02:52:85:02:e0:63:f4:a0:55:
                    80:c9:66:8b:ac:4f:8b:36:f4:56:8f:cf:bd:67:86:
                    72:92:0b:f9:73:7b:05:cc:3d:91:ed:ed:4f:f0:8f:
                    36:99:e5:51:7f:ee:9e:fb:e5:5c:d0:39:a2:f5:51:
                    06:92:3c:ad:cc:59:9d:0a:81:50:26:30:01:e9:f4:
                    b1:e9
                Exponent: 65537 (0x10001)
        X509v3 extensions:
            X509v3 Subject Key Identifier: 
                CD:65:B9:5C:48:35:F7:1E:85:6E:94:50:78:72:BB:3F:F7:BC:22:A6
            X509v3 Authority Key Identifier: 
                B5:91:6E:4F:64:B7:16:84:76:F9:B4:BE:99:CE:60:95:98:1A:8E:9D
            X509v3 Basic Constraints: critical
                CA:FALSE
            Netscape Cert Type: 
                SSL Client, SSL Server
            X509v3 Key Usage: critical
                Digital Signature, Non Repudiation, Key Encipherment
            X509v3 Extended Key Usage: 
                TLS Web Server Authentication, TLS Web Client Authentication
            X509v3 CRL Distribution Points: 
                Full Name:
                  URI:http://127.0.0.1:18888/intermediate1_crl.der
            Authority Information Access: 
                OCSP - URI:http://127.0.0.1:18888/
            X509v3 Subject Alternative Name: 
                DNS:localhost, IP Address:127.0.0.1
    Signature Algorithm: sha256WithRSAEncryption
    Signature Value:
        6f:de:f3:92:b2:8b:57:61:7a:b9:06:49:3e:af:e0:1c:3a:d4:
        42:52:fe:d0:7d:97:8a:9b:d0:6d:b9:f3:e6:8b:2a:40:ce:aa:
        ed:bb:ce:21:e8:ae:32:9d:eb:5a:00:e0:c1:3a:d7:40:74:1b:
        43:e4:43:f0:61:bf:40:06:75:52:1b:b9:f4:b5:32:55:94:f5:
        84:98:90:cc:27:92:91:b7:3d:8e:f1:12:bf:37:1a:8a:50:41:
        3a:14:0c:cf:93:fe:57:97:7b:fe:af:b9:c0:c2:d6:bb:20:e4:
        0a:6f:12:0b:60:a6:cc:59:46:db:99:db:61:71:d3:a7:f5:a1:
        d0:d6:81:87:57:a3:dd:b6:e1:ab:2f:4f:b6:51:21:ec:a6:95:
        df:d3:ab:e5:a1:67:a3:ba:b1:b9:71:39:a1:3b:db:5e:c5:6f:
        b1:34:27:ae:6d:f6:67:4c:7d:7c:6d:12:37:6f:b5:0b:5a:85:
        aa:5d:fd:03:de:59:b5:20:7a:ea:84:a0:a5:75:60:12:12:08:
        77:0e:46:d6:fa:57:fa:b1:43:42:54:38:d7:66:67:cd:fc:b6:
        f9:4c:fe:99:71:2b:d5:a6:13:2f:2e:f0:a3:9e:fc:47:03:31:
        79:38:e3:50:8a:de:81:97:80:9e:46:71:5c:9f:e5:de:0c:49:
        fc:f5:61:1c
-----BEGIN CERTIFICATE-----
MIIEYjCCA0qgAwIBAgIULpHaKVn/xGS/Arwnu+M1Tls295EwDQYJKoZIhvcNAQEL
BQAwWjELMAkGA1UEBhMCVVMxCzAJBgNVBAgMAldBMQ8wDQYDVQQHDAZUYWNvbWEx
ETAPBgNVBAoMCFRlc3RuYXRzMRowGAYDVQQDDBFJbnRlcm1lZGlhdGUgQ0EgMTAe
Fw0yMzA1MDExOTMzNTNaFw0zMzA0MjgxOTMzNTNaMFQxCzAJBgNVBAYTAlVTMQsw
CQYDVQQIDAJXQTEPMA0GA1UEBwwGVGFjb21hMREwDwYDVQQKDAhUZXN0bmF0czEU
MBIGA1UEAwwLVGVzdFNlcnZlcjIwggEiMA0GCSqGSIb3DQEBAQUAA4IBDwAwggEK
AoIBAQCsSM6nsq16aAFVP4Ygfrsm5ojzrgQVfdlkmIW8673YCscmxI4nVoyon1E3
qeyK3K8nBQz1wBmxLA1WZnt+sY+rNGFWN6irUdYd5qdWslFyV5vFh4Rs7+YY1EW4
71JyEQKBYfI2YyUYMX/HkYnDsHMT8CYfoU+M/5Qcdaa+OH2BBjPde4aBxR/SXfbq
P5+r++eXPHLqs4OrSYisqUuB2/rjv3nZbpC/j2jYBfhSrZhBKeAqGJi2smF4AgJS
hQLgY/SgVYDJZousT4s29FaPz71nhnKSC/lzewXMPZHt7U/wjzaZ5VF/7p775VzQ
OaL1UQaSPK3MWZ0KgVAmMAHp9LHpAgMBAAGjggEkMIIBIDAdBgNVHQ4EFgQUzWW5
XEg19x6FbpRQeHK7P/e8IqYwHwYDVR0jBBgwFoAUtZFuT2S3FoR2+bS+mc5glZga
jp0wDAYDVR0TAQH/BAIwADARBglghkgBhvhCAQEEBAMCBsAwDgYDVR0PAQH/BAQD
AgXgMB0GA1UdJQQWMBQGCCsGAQUFBwMBBggrBgEFBQcDAjA9BgNVHR8ENjA0MDKg
MKAuhixodHRwOi8vMTI3LjAuMC4xOjE4ODg4L2ludGVybWVkaWF0ZTFfY3JsLmRl
cjAzBggrBgEFBQcBAQQnMCUwIwYIKwYBBQUHMAGGF2h0dHA6Ly8xMjcuMC4wLjE6
MTg4ODgvMBoGA1UdEQQTMBGCCWxvY2FsaG9zdIcEfwAAATANBgkqhkiG9w0BAQsF
AAOCAQEAb97zkrKLV2F6uQZJPq/gHDrUQlL+0H2XipvQbbnz5osqQM6q7bvOIeiu
Mp3rWgDgwTrXQHQbQ+RD8GG/QAZ1Uhu59LUyVZT1hJiQzCeSkbc9jvESvzcailBB
OhQMz5P+V5d7/q+5wMLWuyDkCm8SC2CmzFlG25nbYXHTp/Wh0NaBh1ej3bbhqy9P
tlEh7KaV39Or5aFno7qxuXE5oTvbXsVvsTQnrm32Z0x9fG0SN2+1C1qFql39A95Z
tSB66oSgpXVgEhIIdw5G1vpX+rFDQlQ412Znzfy2+Uz+mXEr1aYTLy7wo578RwMx
eTjjUIregZeAnkZxXJ/l3gxJ/PVhHA==
-----END CERTIFICATE-----
