Certificate:
    Data:
        Version: 3 (0x2)
        Serial Number:
            23:07:2c:c4:1d:f0:4a:16:93:34:72:ed:03:58:14:30:64:f4:24:42
        Signature Algorithm: sha256WithRSAEncryption
        Issuer: C=US, ST=California, O=Synadia, OU=nats.io, CN=Certificate Authority 2026-05-03
        Validity
            Not Before: May  3 12:40:01 2026 GMT
            Not After : Apr 30 12:40:01 2036 GMT
        Subject: C=US, ST=California, O=Synadia, OU=nats.io, CN=localhost
        Subject Public Key Info:
            Public Key Algorithm: rsaEncryption
                Public-Key: (2048 bit)
                Modulus:
                    00:ac:9c:3e:9d:3b:7a:12:56:85:78:ca:df:9c:fc:
                    0c:7e:5e:f2:4f:22:33:46:81:38:53:d7:a7:25:8f:
                    d7:ee:16:13:e2:67:49:88:f6:94:99:f0:a9:a6:db:
                    fe:7a:17:c9:e3:df:31:73:71:38:70:3a:96:1e:99:
                    7b:5d:07:e3:63:e4:e8:bf:99:f7:3d:5c:27:f5:b7:
                    37:29:da:ee:82:80:00:d4:c8:d3:1b:36:0d:8b:d3:
                    8a:9b:8e:12:a1:4d:0c:c5:22:f8:56:3b:6a:1a:fb:
                    e9:3d:08:1e:13:7f:55:6e:2e:65:93:9a:90:54:03:
                    6d:0d:e6:44:d6:f7:c0:d7:d8:e1:c7:1e:c2:9b:a3:
                    6e:88:f1:7c:58:08:a2:9f:13:cc:5b:b9:11:2c:1d:
                    23:6f:3a:ae:47:9a:0f:6a:ce:e5:80:34:09:e6:e3:
                    fd:76:4a:cf:5a:18:bb:9c:c5:c1:74:49:67:77:1b:
                    ba:28:86:31:a6:fc:12:af:4a:85:1b:73:5b:f4:d6:
                    42:ff:0c:1c:49:e7:31:f2:5a:2a:1e:cd:87:cb:22:
                    ff:70:1c:48:ed:ba:e0:be:f0:bc:9e:e0:dc:59:db:
                    a5:74:25:58:b3:61:04:f6:33:28:6b:07:25:60:0f:
                    72:93:16:6c:9f:b0:ad:4a:18:f7:9e:29:1e:b7:61:
                    34:17
                Exponent: 65537 (0x10001)
        X509v3 extensions:
            X509v3 Basic Constraints: 
                CA:FALSE
            Netscape Comment: 
                nats.io nats-server test-suite certificate
            X509v3 Subject Key Identifier: 
                1F:14:EF:2B:53:AB:28:4A:93:42:98:AE:85:06:0F:B4:7D:DC:36:AE
            X509v3 Authority Key Identifier: 
                keyid:D4:C7:DB:DB:77:CF:B8:81:61:2E:18:E7:46:B3:24:0C:26:60:F8:CE
                DirName:/C=US/ST=California/O=Synadia/OU=nats.io/CN=Certificate Authority 2026-05-03
                serial:4A:7C:25:EB:FB:D6:47:99:67:9C:8D:34:80:67:26:55:4E:F6:E0:6D
            X509v3 Subject Alternative Name: 
                DNS:localhost, IP Address:127.0.0.1, IP Address:0:0:0:0:0:0:0:1, email:derek@nats.io
            Netscape Cert Type: 
                SSL Client
            X509v3 Key Usage: 
                Digital Signature, Key Encipherment
            X509v3 Extended Key Usage: 
                TLS Web Client Authentication
    Signature Algorithm: sha256WithRSAEncryption
    Signature Value:
        3f:83:8a:c2:fc:86:ac:c4:12:c4:fa:a8:6a:b6:a7:87:76:bc:
        16:3a:fb:11:37:14:05:04:4e:57:67:1a:29:ec:95:93:c7:fb:
        a5:f0:b1:ff:04:8d:c6:a8:d2:01:6c:0e:1d:04:15:d5:96:a0:
        14:ba:5e:80:28:cc:d5:77:40:7a:9c:47:c1:e8:a2:f1:2a:8d:
        83:e9:e4:ea:c2:18:5e:38:12:8b:40:f7:76:b5:44:0c:d3:80:
        f1:dc:08:a5:aa:e4:5a:d6:89:fe:0a:3f:c6:ab:bf:64:b8:6c:
        20:47:0b:67:5b:6a:d8:f2:10:76:ee:b5:61:03:3e:42:e0:ee:
        e1:bd:de:9b:52:b2:7a:ad:6d:4d:2a:9f:9e:22:c2:76:bb:9b:
        a7:9a:6d:a7:b2:3e:97:4d:69:6a:46:ff:02:c8:9a:66:6d:2c:
        d4:5d:67:2a:64:57:8f:fb:92:40:d0:05:80:fc:3e:d6:3d:ef:
        84:79:fe:b6:50:b7:39:5a:8b:06:0c:4b:24:d4:78:a1:89:9a:
        15:16:09:f5:5b:7b:7a:6a:a8:45:28:c6:57:d5:08:e0:73:8b:
        4e:5c:29:08:bb:82:8b:0d:a3:e4:34:94:cd:fc:f0:6d:40:53:
        3c:39:2a:80:ce:a3:b6:2e:5f:09:28:97:c5:6f:b1:9c:e9:37:
        11:76:e5:b9
-----BEGIN CERTIFICATE-----
MIIE5zCCA8+gAwIBAgIUIwcsxB3wShaTNHLtA1gUMGT0JEIwDQYJKoZIhvcNAQEL
BQAwcTELMAkGA1UEBhMCVVMxEzARBgNVBAgMCkNhbGlmb3JuaWExEDAOBgNVBAoM
B1N5bmFkaWExEDAOBgNVBAsMB25hdHMuaW8xKTAnBgNVBAMMIENlcnRpZmljYXRl
IEF1dGhvcml0eSAyMDI2LTA1LTAzMB4XDTI2MDUwMzEyNDAwMVoXDTM2MDQzMDEy
NDAwMVowWjELMAkGA1UEBhMCVVMxEzARBgNVBAgMCkNhbGlmb3JuaWExEDAOBgNV
BAoMB1N5bmFkaWExEDAOBgNVBAsMB25hdHMuaW8xEjAQBgNVBAMMCWxvY2FsaG9z
dDCCASIwDQYJKoZIhvcNAQEBBQADggEPADCCAQoCggEBAKycPp07ehJWhXjK35z8
DH5e8k8iM0aBOFPXpyWP1+4WE+JnSYj2lJnwqabb/noXyePfMXNxOHA6lh6Ze10H
42Pk6L+Z9z1cJ/W3Nyna7oKAANTI0xs2DYvTipuOEqFNDMUi+FY7ahr76T0IHhN/
VW4uZZOakFQDbQ3mRNb3wNfY4ccewpujbojxfFgIop8TzFu5ESwdI286rkeaD2rO
5YA0Cebj/XZKz1oYu5zFwXRJZ3cbuiiGMab8Eq9KhRtzW/TWQv8MHEnnMfJaKh7N
h8si/3AcSO264L7wvJ7g3FnbpXQlWLNhBPYzKGsHJWAPcpMWbJ+wrUoY954pHrdh
NBcCAwEAAaOCAYwwggGIMAkGA1UdEwQCMAAwOQYJYIZIAYb4QgENBCwWKm5hdHMu
aW8gbmF0cy1zZXJ2ZXIgdGVzdC1zdWl0ZSBjZXJ0aWZpY2F0ZTAdBgNVHQ4EFgQU
HxTvK1OrKEqTQpiuhQYPtH3cNq4wga4GA1UdIwSBpjCBo4AU1Mfb23fPuIFhLhjn
RrMkDCZg+M6hdaRzMHExCzAJBgNVBAYTAlVTMRMwEQYDVQQIDApDYWxpZm9ybmlh
MRAwDgYDVQQKDAdTeW5hZGlhMRAwDgYDVQQLDAduYXRzLmlvMSkwJwYDVQQDDCBD
ZXJ0aWZpY2F0ZSBBdXRob3JpdHkgMjAyNi0wNS0wM4IUSnwl6/vWR5lnnI00gGcm
VU724G0wOwYDVR0RBDQwMoIJbG9jYWxob3N0hwR/AAABhxAAAAAAAAAAAAAAAAAA
AAABgQ1kZXJla0BuYXRzLmlvMBEGCWCGSAGG+EIBAQQEAwIHgDALBgNVHQ8EBAMC
BaAwEwYDVR0lBAwwCgYIKwYBBQUHAwIwDQYJKoZIhvcNAQELBQADggEBAD+DisL8
hqzEEsT6qGq2p4d2vBY6+xE3FAUETldnGinslZPH+6Xwsf8Ejcao0gFsDh0EFdWW
oBS6XoAozNV3QHqcR8HoovEqjYPp5OrCGF44EotA93a1RAzTgPHcCKWq5FrWif4K
P8arv2S4bCBHC2dbatjyEHbutWEDPkLg7uG93ptSsnqtbU0qn54iwna7m6eabaey
PpdNaWpG/wLImmZtLNRdZypkV4/7kkDQBYD8PtY974R5/rZQtzlaiwYMSyTUeKGJ
mhUWCfVbe3pqqEUoxlfVCOBzi05cKQi7gosNo+Q0lM388G1AUzw5KoDOo7YuXwko
l8VvsZzpNxF25bk=
-----END CERTIFICATE-----
