Certificate:
    Data:
        Version: 3 (0x2)
        Serial Number:
            38:4c:16:24:9b:04:1c:b3:db:e0:4c:3c:ed:b7:40:7d:68:b5:fa:1f
        Signature Algorithm: sha256WithRSAEncryption
        Issuer: C=US, ST=California, O=Synadia, OU=nats.io, CN=Certificate Authority 2022-08-27
        Validity
            Not Before: Aug 27 20:23:02 2022 GMT
            Not After : Aug 24 20:23:02 2032 GMT
        Subject: C=US, ST=California, O=Synadia, OU=nats.io, CN=localhost
        Subject Public Key Info:
            Public Key Algorithm: rsaEncryption
                RSA Public-Key: (2048 bit)
                Modulus:
                    00:ac:9c:3e:9d:3b:7a:12:56:85:78:ca:df:9c:fc:
                    0c:7e:5e:f2:4f:22:33:46:81:38:53:d7:a7:25:8f:
                    d7:ee:16:13:e2:67:49:88:f6:94:99:f0:a9:a6:db:
                    fe:7a:17:c9:e3:df:31:73:71:38:70:3a:96:1e:99:
                    7b:5d:07:e3:63:e4:e8:bf:99:f7:3d:5c:27:f5:b7:
                    37:29:da:ee:82:80:00:d4:c8:d3:1b:36:0d:8b:d3:
                    8a:9b:8e:12:a1:4d:0c:c5:22:f8:56:3b:6a:1a:fb:
                    e9:3d:08:1e:13:7f:55:6e:2e:65:93:9a:90:54:03:
                    6d:0d:e6:44:d6:f7:c0:d7:d8:e1:c7:1e:c2:9b:a3:
                    6e:88:f1:7c:58:08:a2:9f:13:cc:5b:b9:11:2c:1d:
                    23:6f:3a:ae:47:9a:0f:6a:ce:e5:80:34:09:e6:e3:
                    fd:76:4a:cf:5a:18:bb:9c:c5:c1:74:49:67:77:1b:
                    ba:28:86:31:a6:fc:12:af:4a:85:1b:73:5b:f4:d6:
                    42:ff:0c:1c:49:e7:31:f2:5a:2a:1e:cd:87:cb:22:
                    ff:70:1c:48:ed:ba:e0:be:f0:bc:9e:e0:dc:59:db:
                    a5:74:25:58:b3:61:04:f6:33:28:6b:07:25:60:0f:
                    72:93:16:6c:9f:b0:ad:4a:18:f7:9e:29:1e:b7:61:
                    34:17
                Exponent: 65537 (0x10001)
        X509v3 extensions:
            X509v3 Basic Constraints: 
                CA:FALSE
            Netscape Comment: 
                nats.io nats-server test-suite certificate
            X509v3 Subject Key Identifier: 
                1F:14:EF:2B:53:AB:28:4A:93:42:98:AE:85:06:0F:B4:7D:DC:36:AE
            X509v3 Authority Key Identifier: 
                keyid:FE:CF:7F:3E:2E:EE:C4:AD:EA:5B:6F:88:45:6C:C7:88:48:14:8B:3A
                DirName:/C=US/ST=California/O=Synadia/OU=nats.io/CN=Certificate Authority 2022-08-27
                serial:49:9C:16:ED:BB:5C:F4:45:1B:AC:C5:AD:8C:7A:5B:33:40:B6:6D:21

            X509v3 Subject Alternative Name: 
                DNS:localhost, IP Address:127.0.0.1, IP Address:0:0:0:0:0:0:0:1, email:derek@nats.io
            Netscape Cert Type: 
                SSL Client
            X509v3 Key Usage: 
                Digital Signature, Key Encipherment
            X509v3 Extended Key Usage: 
                TLS Web Client Authentication
    Signature Algorithm: sha256WithRSAEncryption
         60:43:0b:c6:11:0b:96:ae:03:dc:77:26:9a:4a:bd:6a:d7:03:
         ec:43:16:2d:ba:8c:e5:50:fa:57:a9:1f:2f:a4:15:c3:a8:13:
         b9:d3:59:2a:97:7c:ae:ce:a9:f8:44:e4:97:ee:7d:09:dc:74:
         38:80:94:cf:47:e0:84:52:2a:91:44:8a:85:55:da:42:6a:f1:
         91:1a:6e:5a:63:e6:0b:61:3c:0d:b0:aa:17:b8:77:94:32:20:
         4d:20:8f:84:56:64:ae:ef:d8:8d:42:b5:52:4d:b0:1c:46:97:
         bc:4c:77:8c:3f:a3:73:43:87:27:71:62:e7:fe:02:de:a1:27:
         77:be:86:29:8f:62:a1:d9:e7:ea:61:33:73:f4:1f:0a:12:14:
         68:eb:7d:8c:71:5b:42:e7:48:10:c9:df:30:3b:5b:eb:69:29:
         b6:95:bc:09:fc:01:b0:be:fc:9f:ee:c4:f3:df:a0:01:c5:68:
         20:f5:2f:f8:e7:1c:a5:4c:a8:a8:a2:20:a1:d2:0f:f6:f6:c4:
         0d:f5:26:fd:ea:8b:b5:06:a9:9e:17:35:47:f7:fd:6e:78:3d:
         5f:7a:87:ed:21:b2:4e:e9:6a:d1:d9:ed:0e:cf:43:61:83:7c:
         fe:0d:b1:ad:ff:fa:2d:2b:36:9d:99:9c:20:48:21:0d:36:c8:
         dd:b6:0a:d8
-----BEGIN CERTIFICATE-----
MIIE5zCCA8+gAwIBAgIUOEwWJJsEHLPb4Ew87bdAfWi1+h8wDQYJKoZIhvcNAQEL
BQAwcTELMAkGA1UEBhMCVVMxEzARBgNVBAgMCkNhbGlmb3JuaWExEDAOBgNVBAoM
B1N5bmFkaWExEDAOBgNVBAsMB25hdHMuaW8xKTAnBgNVBAMMIENlcnRpZmljYXRl
IEF1dGhvcml0eSAyMDIyLTA4LTI3MB4XDTIyMDgyNzIwMjMwMloXDTMyMDgyNDIw
MjMwMlowWjELMAkGA1UEBhMCVVMxEzARBgNVBAgMCkNhbGlmb3JuaWExEDAOBgNV
BAoMB1N5bmFkaWExEDAOBgNVBAsMB25hdHMuaW8xEjAQBgNVBAMMCWxvY2FsaG9z
dDCCASIwDQYJKoZIhvcNAQEBBQADggEPADCCAQoCggEBAKycPp07ehJWhXjK35z8
DH5e8k8iM0aBOFPXpyWP1+4WE+JnSYj2lJnwqabb/noXyePfMXNxOHA6lh6Ze10H
42Pk6L+Z9z1cJ/W3Nyna7oKAANTI0xs2DYvTipuOEqFNDMUi+FY7ahr76T0IHhN/
VW4uZZOakFQDbQ3mRNb3wNfY4ccewpujbojxfFgIop8TzFu5ESwdI286rkeaD2rO
5YA0Cebj/XZKz1oYu5zFwXRJZ3cbuiiGMab8Eq9KhRtzW/TWQv8MHEnnMfJaKh7N
h8si/3AcSO264L7wvJ7g3FnbpXQlWLNhBPYzKGsHJWAPcpMWbJ+wrUoY954pHrdh
NBcCAwEAAaOCAYwwggGIMAkGA1UdEwQCMAAwOQYJYIZIAYb4QgENBCwWKm5hdHMu
aW8gbmF0cy1zZXJ2ZXIgdGVzdC1zdWl0ZSBjZXJ0aWZpY2F0ZTAdBgNVHQ4EFgQU
HxTvK1OrKEqTQpiuhQYPtH3cNq4wga4GA1UdIwSBpjCBo4AU/s9/Pi7uxK3qW2+I
RWzHiEgUizqhdaRzMHExCzAJBgNVBAYTAlVTMRMwEQYDVQQIDApDYWxpZm9ybmlh
MRAwDgYDVQQKDAdTeW5hZGlhMRAwDgYDVQQLDAduYXRzLmlvMSkwJwYDVQQDDCBD
ZXJ0aWZpY2F0ZSBBdXRob3JpdHkgMjAyMi0wOC0yN4IUSZwW7btc9EUbrMWtjHpb
M0C2bSEwOwYDVR0RBDQwMoIJbG9jYWxob3N0hwR/AAABhxAAAAAAAAAAAAAAAAAA
AAABgQ1kZXJla0BuYXRzLmlvMBEGCWCGSAGG+EIBAQQEAwIHgDALBgNVHQ8EBAMC
BaAwEwYDVR0lBAwwCgYIKwYBBQUHAwIwDQYJKoZIhvcNAQELBQADggEBAGBDC8YR
C5auA9x3JppKvWrXA+xDFi26jOVQ+lepHy+kFcOoE7nTWSqXfK7OqfhE5JfufQnc
dDiAlM9H4IRSKpFEioVV2kJq8ZEablpj5gthPA2wqhe4d5QyIE0gj4RWZK7v2I1C
tVJNsBxGl7xMd4w/o3NDhydxYuf+At6hJ3e+himPYqHZ5+phM3P0HwoSFGjrfYxx
W0LnSBDJ3zA7W+tpKbaVvAn8AbC+/J/uxPPfoAHFaCD1L/jnHKVMqKiiIKHSD/b2
xA31Jv3qi7UGqZ4XNUf3/W54PV96h+0hsk7patHZ7Q7PQ2GDfP4Nsa3/+i0rNp2Z
nCBIIQ02yN22Ctg=
-----END CERTIFICATE-----
