Certificate:
    Data:
        Version: 3 (0x2)
        Serial Number:
            33:12:6e:b2:1a:5c:22:31:e3:9e:80:4b:65:d8:ab:c1:e8:ed:89:8d
        Signature Algorithm: sha256WithRSAEncryption
        Issuer: C=US, ST=California, O=Synadia, OU=nats.io, CN=Certificate Authority 2026-05-03
        Validity
            Not Before: May  3 12:40:01 2026 GMT
            Not After : Apr 30 12:40:01 2036 GMT
        Subject: C=US, ST=California, O=Synadia, OU=nats.io, CN=localhost
        Subject Public Key Info:
            Public Key Algorithm: rsaEncryption
                Public-Key: (2048 bit)
                Modulus:
                    00:e4:2f:ec:ba:66:87:36:a8:09:ab:66:9b:cc:77:
                    24:50:e0:29:4d:c9:98:c8:9f:08:1c:a5:66:0a:b6:
                    83:38:8a:3a:f3:3c:16:64:fe:13:b6:02:bd:50:64:
                    7d:bb:19:a5:ec:e1:1c:2f:1c:30:be:cd:07:c4:33:
                    1f:ae:e2:7f:c5:11:f0:d3:1d:2a:4b:28:66:c1:a0:
                    09:52:77:64:75:b7:86:a9:63:cf:a4:29:c8:ad:87:
                    3d:79:71:6b:19:34:86:23:80:ed:ed:e6:eb:29:c4:
                    6f:2c:9a:c8:ef:da:6a:4e:e5:c9:ce:ef:48:87:26:
                    11:d3:f2:2c:4f:d2:a8:b6:26:b1:1d:48:49:9f:f5:
                    5a:d4:8a:30:a8:67:1c:8a:b9:3a:13:5d:04:82:e4:
                    89:aa:4b:ec:13:59:f7:92:32:33:8f:28:df:50:98:
                    65:92:0a:35:cc:c5:04:e3:86:ac:69:cc:6a:84:30:
                    91:af:af:44:4a:e8:9f:26:0a:f6:1b:78:f6:90:81:
                    b1:eb:11:e6:85:1e:42:0e:09:15:e5:e3:36:86:b2:
                    46:38:b7:81:c2:c4:16:72:b9:a7:55:89:03:78:28:
                    e0:2e:29:17:ce:58:2f:16:80:34:b2:5e:02:00:11:
                    01:2c:35:ac:bb:0e:2d:41:00:6d:0c:85:94:1a:f6:
                    7a:8b
                Exponent: 65537 (0x10001)
        X509v3 extensions:
            X509v3 Basic Constraints: 
                CA:FALSE
            Netscape Comment: 
                nats.io nats-server test-suite certificate
            X509v3 Subject Key Identifier: 
                86:48:10:75:95:44:01:FC:76:A0:96:E9:35:52:55:A6:38:8C:5F:37
            X509v3 Authority Key Identifier: 
                keyid:D4:C7:DB:DB:77:CF:B8:81:61:2E:18:E7:46:B3:24:0C:26:60:F8:CE
                DirName:/C=US/ST=California/O=Synadia/OU=nats.io/CN=Certificate Authority 2026-05-03
                serial:4A:7C:25:EB:FB:D6:47:99:67:9C:8D:34:80:67:26:55:4E:F6:E0:6D
            X509v3 Subject Alternative Name: 
                DNS:localhost, IP Address:127.0.0.1, IP Address:0:0:0:0:0:0:0:1, email:derek@nats.io
            Netscape Cert Type: 
                SSL Client
            X509v3 Key Usage: 
                Digital Signature, Key Encipherment
            X509v3 Extended Key Usage: 
                TLS Web Client Authentication
    Signature Algorithm: sha256WithRSAEncryption
    Signature Value:
        7c:ca:28:dd:3b:0e:5d:a6:c5:42:75:e4:93:6e:0a:35:07:c9:
        52:f9:f8:e2:c5:51:88:9f:bc:ec:74:7b:17:4e:e6:76:f7:52:
        f6:11:f4:07:60:e7:49:9e:41:45:ef:d5:99:42:cc:85:18:92:
        57:ab:fc:82:af:6e:0d:c0:1b:bb:10:db:fb:03:b1:d9:e6:4a:
        07:ff:ea:27:d0:2e:60:93:6c:09:bf:db:50:08:2f:5e:65:ce:
        2d:54:32:97:ba:20:a0:5f:f4:30:ae:78:ed:55:20:37:74:08:
        94:30:e5:fe:5d:52:54:cf:1b:67:a0:93:0b:85:4b:17:25:37:
        7f:ca:fc:e8:6f:73:2e:70:c0:02:8e:06:f3:1f:71:3a:57:49:
        24:d2:d6:d5:c7:19:67:24:2e:f9:c6:9f:b2:e8:cc:cb:14:d1:
        a1:2c:fe:fc:ab:3a:ec:eb:71:07:41:29:f0:1f:ee:5f:db:dd:
        42:d4:99:07:f7:df:66:3a:b7:cd:b8:ba:88:da:8e:70:b9:19:
        f9:6c:65:ff:64:2f:04:40:0d:2f:c6:88:da:17:de:21:36:5e:
        69:06:92:9b:82:7c:34:53:7d:51:b2:9b:7e:e1:36:bb:aa:5d:
        03:0b:cd:bb:60:fb:7d:65:b9:6c:61:5a:6f:53:e6:64:ee:7b:
        2a:a9:d2:b2
-----BEGIN CERTIFICATE-----
MIIE5zCCA8+gAwIBAgIUMxJushpcIjHjnoBLZdirwejtiY0wDQYJKoZIhvcNAQEL
BQAwcTELMAkGA1UEBhMCVVMxEzARBgNVBAgMCkNhbGlmb3JuaWExEDAOBgNVBAoM
B1N5bmFkaWExEDAOBgNVBAsMB25hdHMuaW8xKTAnBgNVBAMMIENlcnRpZmljYXRl
IEF1dGhvcml0eSAyMDI2LTA1LTAzMB4XDTI2MDUwMzEyNDAwMVoXDTM2MDQzMDEy
NDAwMVowWjELMAkGA1UEBhMCVVMxEzARBgNVBAgMCkNhbGlmb3JuaWExEDAOBgNV
BAoMB1N5bmFkaWExEDAOBgNVBAsMB25hdHMuaW8xEjAQBgNVBAMMCWxvY2FsaG9z
dDCCASIwDQYJKoZIhvcNAQEBBQADggEPADCCAQoCggEBAOQv7LpmhzaoCatmm8x3
JFDgKU3JmMifCBylZgq2gziKOvM8FmT+E7YCvVBkfbsZpezhHC8cML7NB8QzH67i
f8UR8NMdKksoZsGgCVJ3ZHW3hqljz6QpyK2HPXlxaxk0hiOA7e3m6ynEbyyayO/a
ak7lyc7vSIcmEdPyLE/SqLYmsR1ISZ/1WtSKMKhnHIq5OhNdBILkiapL7BNZ95Iy
M48o31CYZZIKNczFBOOGrGnMaoQwka+vREronyYK9ht49pCBsesR5oUeQg4JFeXj
NoayRji3gcLEFnK5p1WJA3go4C4pF85YLxaANLJeAgARASw1rLsOLUEAbQyFlBr2
eosCAwEAAaOCAYwwggGIMAkGA1UdEwQCMAAwOQYJYIZIAYb4QgENBCwWKm5hdHMu
aW8gbmF0cy1zZXJ2ZXIgdGVzdC1zdWl0ZSBjZXJ0aWZpY2F0ZTAdBgNVHQ4EFgQU
hkgQdZVEAfx2oJbpNVJVpjiMXzcwga4GA1UdIwSBpjCBo4AU1Mfb23fPuIFhLhjn
RrMkDCZg+M6hdaRzMHExCzAJBgNVBAYTAlVTMRMwEQYDVQQIDApDYWxpZm9ybmlh
MRAwDgYDVQQKDAdTeW5hZGlhMRAwDgYDVQQLDAduYXRzLmlvMSkwJwYDVQQDDCBD
ZXJ0aWZpY2F0ZSBBdXRob3JpdHkgMjAyNi0wNS0wM4IUSnwl6/vWR5lnnI00gGcm
VU724G0wOwYDVR0RBDQwMoIJbG9jYWxob3N0hwR/AAABhxAAAAAAAAAAAAAAAAAA
AAABgQ1kZXJla0BuYXRzLmlvMBEGCWCGSAGG+EIBAQQEAwIHgDALBgNVHQ8EBAMC
BaAwEwYDVR0lBAwwCgYIKwYBBQUHAwIwDQYJKoZIhvcNAQELBQADggEBAHzKKN07
Dl2mxUJ15JNuCjUHyVL5+OLFUYifvOx0exdO5nb3UvYR9Adg50meQUXv1ZlCzIUY
kler/IKvbg3AG7sQ2/sDsdnmSgf/6ifQLmCTbAm/21AIL15lzi1UMpe6IKBf9DCu
eO1VIDd0CJQw5f5dUlTPG2egkwuFSxclN3/K/Ohvcy5wwAKOBvMfcTpXSSTS1tXH
GWckLvnGn7LozMsU0aEs/vyrOuzrcQdBKfAf7l/b3ULUmQf332Y6t824uojajnC5
GflsZf9kLwRADS/GiNoX3iE2XmkGkpuCfDRTfVGym37hNruqXQMLzbtg+31luWxh
Wm9T5mTueyqp0rI=
-----END CERTIFICATE-----
