Certificate:
    Data:
        Version: 3 (0x2)
        Serial Number:
            74:4b:fa:47:3b:79:81:c8:07:a4:c8:d9:70:df:d2:98:bc:a1:27:76
        Signature Algorithm: sha256WithRSAEncryption
        Issuer: C=US, ST=California, O=Synadia, OU=nats.io, CN=Certificate Authority 2022-08-27
        Validity
            Not Before: Aug 27 20:23:02 2022 GMT
            Not After : Aug 24 20:23:02 2032 GMT
        Subject: C=US, ST=California, O=Synadia, OU=nats.io, CN=localhost
        Subject Public Key Info:
            Public Key Algorithm: rsaEncryption
                RSA Public-Key: (2048 bit)
                Modulus:
                    00:e4:2f:ec:ba:66:87:36:a8:09:ab:66:9b:cc:77:
                    24:50:e0:29:4d:c9:98:c8:9f:08:1c:a5:66:0a:b6:
                    83:38:8a:3a:f3:3c:16:64:fe:13:b6:02:bd:50:64:
                    7d:bb:19:a5:ec:e1:1c:2f:1c:30:be:cd:07:c4:33:
                    1f:ae:e2:7f:c5:11:f0:d3:1d:2a:4b:28:66:c1:a0:
                    09:52:77:64:75:b7:86:a9:63:cf:a4:29:c8:ad:87:
                    3d:79:71:6b:19:34:86:23:80:ed:ed:e6:eb:29:c4:
                    6f:2c:9a:c8:ef:da:6a:4e:e5:c9:ce:ef:48:87:26:
                    11:d3:f2:2c:4f:d2:a8:b6:26:b1:1d:48:49:9f:f5:
                    5a:d4:8a:30:a8:67:1c:8a:b9:3a:13:5d:04:82:e4:
                    89:aa:4b:ec:13:59:f7:92:32:33:8f:28:df:50:98:
                    65:92:0a:35:cc:c5:04:e3:86:ac:69:cc:6a:84:30:
                    91:af:af:44:4a:e8:9f:26:0a:f6:1b:78:f6:90:81:
                    b1:eb:11:e6:85:1e:42:0e:09:15:e5:e3:36:86:b2:
                    46:38:b7:81:c2:c4:16:72:b9:a7:55:89:03:78:28:
                    e0:2e:29:17:ce:58:2f:16:80:34:b2:5e:02:00:11:
                    01:2c:35:ac:bb:0e:2d:41:00:6d:0c:85:94:1a:f6:
                    7a:8b
                Exponent: 65537 (0x10001)
        X509v3 extensions:
            X509v3 Basic Constraints: 
                CA:FALSE
            Netscape Comment: 
                nats.io nats-server test-suite certificate
            X509v3 Subject Key Identifier: 
                86:48:10:75:95:44:01:FC:76:A0:96:E9:35:52:55:A6:38:8C:5F:37
            X509v3 Authority Key Identifier: 
                keyid:FE:CF:7F:3E:2E:EE:C4:AD:EA:5B:6F:88:45:6C:C7:88:48:14:8B:3A
                DirName:/C=US/ST=California/O=Synadia/OU=nats.io/CN=Certificate Authority 2022-08-27
                serial:49:9C:16:ED:BB:5C:F4:45:1B:AC:C5:AD:8C:7A:5B:33:40:B6:6D:21

            X509v3 Subject Alternative Name: 
                DNS:localhost, IP Address:127.0.0.1, IP Address:0:0:0:0:0:0:0:1, email:derek@nats.io
            Netscape Cert Type: 
                SSL Client
            X509v3 Key Usage: 
                Digital Signature, Key Encipherment
            X509v3 Extended Key Usage: 
                TLS Web Client Authentication
    Signature Algorithm: sha256WithRSAEncryption
         0e:37:24:36:db:25:73:c2:8d:71:e0:44:05:c1:2f:ac:e7:a4:
         20:26:2a:15:69:20:2f:ea:4c:fb:0c:74:4b:29:e0:92:0f:12:
         8a:a0:4a:73:78:ba:81:eb:4d:91:1c:3f:8e:58:cb:3f:30:77:
         6e:95:5d:a6:a6:22:b3:f9:20:0a:75:93:bc:95:6c:b3:1c:c2:
         6a:72:9a:a6:62:1f:ed:a1:df:9c:2f:d7:28:02:08:49:07:c5:
         3b:5b:58:0f:f6:7b:b5:39:de:05:c7:be:c7:89:bf:62:77:56:
         eb:96:b9:74:d6:bf:ce:20:8d:ef:0c:08:bb:ec:0d:b2:55:6d:
         cb:94:83:88:89:a5:47:c4:95:91:72:10:c5:3c:6a:be:e5:86:
         bb:be:96:74:fd:67:d2:08:55:4e:df:e9:96:c4:62:58:93:6a:
         0c:2c:68:a1:93:b9:61:38:98:eb:c4:4a:1c:3f:9f:9d:c2:3c:
         b0:eb:62:7f:a0:aa:e9:53:a3:f7:55:5d:43:1d:5a:63:8b:97:
         32:4c:dc:b8:11:0b:65:35:de:2b:f9:af:8e:28:8c:6f:dd:4d:
         13:3e:b9:f8:7b:7f:27:0d:43:a9:da:b6:59:10:d5:9c:a6:97:
         79:97:19:94:f0:8d:0e:13:f7:c1:ee:50:f2:4c:81:6a:e6:0f:
         d7:42:c3:67
-----BEGIN CERTIFICATE-----
MIIE5zCCA8+gAwIBAgIUdEv6Rzt5gcgHpMjZcN/SmLyhJ3YwDQYJKoZIhvcNAQEL
BQAwcTELMAkGA1UEBhMCVVMxEzARBgNVBAgMCkNhbGlmb3JuaWExEDAOBgNVBAoM
B1N5bmFkaWExEDAOBgNVBAsMB25hdHMuaW8xKTAnBgNVBAMMIENlcnRpZmljYXRl
IEF1dGhvcml0eSAyMDIyLTA4LTI3MB4XDTIyMDgyNzIwMjMwMloXDTMyMDgyNDIw
MjMwMlowWjELMAkGA1UEBhMCVVMxEzARBgNVBAgMCkNhbGlmb3JuaWExEDAOBgNV
BAoMB1N5bmFkaWExEDAOBgNVBAsMB25hdHMuaW8xEjAQBgNVBAMMCWxvY2FsaG9z
dDCCASIwDQYJKoZIhvcNAQEBBQADggEPADCCAQoCggEBAOQv7LpmhzaoCatmm8x3
JFDgKU3JmMifCBylZgq2gziKOvM8FmT+E7YCvVBkfbsZpezhHC8cML7NB8QzH67i
f8UR8NMdKksoZsGgCVJ3ZHW3hqljz6QpyK2HPXlxaxk0hiOA7e3m6ynEbyyayO/a
ak7lyc7vSIcmEdPyLE/SqLYmsR1ISZ/1WtSKMKhnHIq5OhNdBILkiapL7BNZ95Iy
M48o31CYZZIKNczFBOOGrGnMaoQwka+vREronyYK9ht49pCBsesR5oUeQg4JFeXj
NoayRji3gcLEFnK5p1WJA3go4C4pF85YLxaANLJeAgARASw1rLsOLUEAbQyFlBr2
eosCAwEAAaOCAYwwggGIMAkGA1UdEwQCMAAwOQYJYIZIAYb4QgENBCwWKm5hdHMu
aW8gbmF0cy1zZXJ2ZXIgdGVzdC1zdWl0ZSBjZXJ0aWZpY2F0ZTAdBgNVHQ4EFgQU
hkgQdZVEAfx2oJbpNVJVpjiMXzcwga4GA1UdIwSBpjCBo4AU/s9/Pi7uxK3qW2+I
RWzHiEgUizqhdaRzMHExCzAJBgNVBAYTAlVTMRMwEQYDVQQIDApDYWxpZm9ybmlh
MRAwDgYDVQQKDAdTeW5hZGlhMRAwDgYDVQQLDAduYXRzLmlvMSkwJwYDVQQDDCBD
ZXJ0aWZpY2F0ZSBBdXRob3JpdHkgMjAyMi0wOC0yN4IUSZwW7btc9EUbrMWtjHpb
M0C2bSEwOwYDVR0RBDQwMoIJbG9jYWxob3N0hwR/AAABhxAAAAAAAAAAAAAAAAAA
AAABgQ1kZXJla0BuYXRzLmlvMBEGCWCGSAGG+EIBAQQEAwIHgDALBgNVHQ8EBAMC
BaAwEwYDVR0lBAwwCgYIKwYBBQUHAwIwDQYJKoZIhvcNAQELBQADggEBAA43JDbb
JXPCjXHgRAXBL6znpCAmKhVpIC/qTPsMdEsp4JIPEoqgSnN4uoHrTZEcP45Yyz8w
d26VXaamIrP5IAp1k7yVbLMcwmpymqZiH+2h35wv1ygCCEkHxTtbWA/2e7U53gXH
vseJv2J3VuuWuXTWv84gje8MCLvsDbJVbcuUg4iJpUfElZFyEMU8ar7lhru+lnT9
Z9IIVU7f6ZbEYliTagwsaKGTuWE4mOvEShw/n53CPLDrYn+gqulTo/dVXUMdWmOL
lzJM3LgRC2U13iv5r44ojG/dTRM+ufh7fycNQ6natlkQ1Zyml3mXGZTwjQ4T98Hu
UPJMgWrmD9dCw2c=
-----END CERTIFICATE-----
