Certificate:
    Data:
        Version: 3 (0x2)
        Serial Number:
            38:93:ed:6f:04:c5:57:98:f2:5b:ff:e6:56:8b:ae:63:b7:8c:45:59
        Signature Algorithm: sha256WithRSAEncryption
        Issuer: C=US, ST=California, O=Synadia, OU=nats.io, CN=Certificate Authority 2022-07-28
        Validity
            Not Before: Jul 28 06:52:52 2022 GMT
            Not After : Jul 25 06:52:52 2032 GMT
        Subject: C=US, ST=California, O=Synadia, OU=nats.io, CN=localhost
        Subject Public Key Info:
            Public Key Algorithm: rsaEncryption
                RSA Public-Key: (2048 bit)
                Modulus:
                    00:ac:9c:3e:9d:3b:7a:12:56:85:78:ca:df:9c:fc:
                    0c:7e:5e:f2:4f:22:33:46:81:38:53:d7:a7:25:8f:
                    d7:ee:16:13:e2:67:49:88:f6:94:99:f0:a9:a6:db:
                    fe:7a:17:c9:e3:df:31:73:71:38:70:3a:96:1e:99:
                    7b:5d:07:e3:63:e4:e8:bf:99:f7:3d:5c:27:f5:b7:
                    37:29:da:ee:82:80:00:d4:c8:d3:1b:36:0d:8b:d3:
                    8a:9b:8e:12:a1:4d:0c:c5:22:f8:56:3b:6a:1a:fb:
                    e9:3d:08:1e:13:7f:55:6e:2e:65:93:9a:90:54:03:
                    6d:0d:e6:44:d6:f7:c0:d7:d8:e1:c7:1e:c2:9b:a3:
                    6e:88:f1:7c:58:08:a2:9f:13:cc:5b:b9:11:2c:1d:
                    23:6f:3a:ae:47:9a:0f:6a:ce:e5:80:34:09:e6:e3:
                    fd:76:4a:cf:5a:18:bb:9c:c5:c1:74:49:67:77:1b:
                    ba:28:86:31:a6:fc:12:af:4a:85:1b:73:5b:f4:d6:
                    42:ff:0c:1c:49:e7:31:f2:5a:2a:1e:cd:87:cb:22:
                    ff:70:1c:48:ed:ba:e0:be:f0:bc:9e:e0:dc:59:db:
                    a5:74:25:58:b3:61:04:f6:33:28:6b:07:25:60:0f:
                    72:93:16:6c:9f:b0:ad:4a:18:f7:9e:29:1e:b7:61:
                    34:17
                Exponent: 65537 (0x10001)
        X509v3 extensions:
            X509v3 Basic Constraints: 
                CA:FALSE
            Netscape Comment: 
                nats.io nats-server test-suite certificate
            X509v3 Subject Key Identifier: 
                1F:14:EF:2B:53:AB:28:4A:93:42:98:AE:85:06:0F:B4:7D:DC:36:AE
            X509v3 Authority Key Identifier: 
                keyid:4A:C2:12:A8:56:1F:08:4A:9B:33:42:10:F2:75:86:C3:45:17:4C:14
                DirName:/C=US/ST=California/O=Synadia/OU=nats.io/CN=Certificate Authority 2022-07-28
                serial:51:B7:7B:F5:26:C0:C7:F4:C9:3D:10:3E:A1:86:8C:47:67:2A:46:60

            X509v3 Subject Alternative Name: 
                DNS:localhost, IP Address:127.0.0.1, IP Address:0:0:0:0:0:0:0:1, email:derek@nats.io
            Netscape Cert Type: 
                SSL Client
            X509v3 Key Usage: 
                Digital Signature, Key Encipherment
            X509v3 Extended Key Usage: 
                TLS Web Client Authentication
    Signature Algorithm: sha256WithRSAEncryption
         4b:c0:a6:70:49:fa:2d:c0:99:df:0f:0b:1b:1e:4a:68:eb:c4:
         48:7c:d2:93:9d:ca:66:e2:c6:76:0f:4a:79:5a:f8:ad:d0:de:
         18:ad:05:66:17:1d:c2:0f:00:76:d2:a2:70:7f:38:51:2d:69:
         ae:d3:59:fb:ba:c3:4d:5a:69:e8:bd:25:73:22:c7:93:c7:05:
         c2:12:31:d0:5a:4e:11:2f:74:10:66:c0:98:b9:2b:43:f0:61:
         22:05:82:ec:f7:57:2a:cc:56:9d:44:d4:2d:80:10:5d:87:31:
         39:d3:7f:12:35:cb:60:11:fc:29:22:2c:17:ab:85:5f:83:b4:
         57:d1:67:7a:86:04:10:dc:e8:84:b0:f3:1d:36:9a:71:d2:c7:
         f2:ce:36:63:3a:c1:6e:4b:29:d9:77:c8:e0:b9:fd:73:77:3f:
         83:1e:bb:99:1f:6c:67:da:d1:34:b2:47:a2:4a:ef:00:23:02:
         4f:10:ef:24:b2:70:00:ce:26:3e:72:5f:a5:8a:1d:2b:3e:34:
         2d:c7:c5:60:dc:33:69:88:1e:06:a3:c3:90:58:09:71:ca:6a:
         d9:7e:13:5a:81:c0:0d:44:40:52:41:8d:1b:e9:2f:4c:cd:68:
         68:68:d3:60:c7:3f:61:5c:ab:65:a4:98:c9:8b:7b:b5:fc:dc:
         86:d1:a3:13
-----BEGIN CERTIFICATE-----
MIIE5zCCA8+gAwIBAgIUOJPtbwTFV5jyW//mVouuY7eMRVkwDQYJKoZIhvcNAQEL
BQAwcTELMAkGA1UEBhMCVVMxEzARBgNVBAgMCkNhbGlmb3JuaWExEDAOBgNVBAoM
B1N5bmFkaWExEDAOBgNVBAsMB25hdHMuaW8xKTAnBgNVBAMMIENlcnRpZmljYXRl
IEF1dGhvcml0eSAyMDIyLTA3LTI4MB4XDTIyMDcyODA2NTI1MloXDTMyMDcyNTA2
NTI1MlowWjELMAkGA1UEBhMCVVMxEzARBgNVBAgMCkNhbGlmb3JuaWExEDAOBgNV
BAoMB1N5bmFkaWExEDAOBgNVBAsMB25hdHMuaW8xEjAQBgNVBAMMCWxvY2FsaG9z
dDCCASIwDQYJKoZIhvcNAQEBBQADggEPADCCAQoCggEBAKycPp07ehJWhXjK35z8
DH5e8k8iM0aBOFPXpyWP1+4WE+JnSYj2lJnwqabb/noXyePfMXNxOHA6lh6Ze10H
42Pk6L+Z9z1cJ/W3Nyna7oKAANTI0xs2DYvTipuOEqFNDMUi+FY7ahr76T0IHhN/
VW4uZZOakFQDbQ3mRNb3wNfY4ccewpujbojxfFgIop8TzFu5ESwdI286rkeaD2rO
5YA0Cebj/XZKz1oYu5zFwXRJZ3cbuiiGMab8Eq9KhRtzW/TWQv8MHEnnMfJaKh7N
h8si/3AcSO264L7wvJ7g3FnbpXQlWLNhBPYzKGsHJWAPcpMWbJ+wrUoY954pHrdh
NBcCAwEAAaOCAYwwggGIMAkGA1UdEwQCMAAwOQYJYIZIAYb4QgENBCwWKm5hdHMu
aW8gbmF0cy1zZXJ2ZXIgdGVzdC1zdWl0ZSBjZXJ0aWZpY2F0ZTAdBgNVHQ4EFgQU
HxTvK1OrKEqTQpiuhQYPtH3cNq4wga4GA1UdIwSBpjCBo4AUSsISqFYfCEqbM0IQ
8nWGw0UXTBShdaRzMHExCzAJBgNVBAYTAlVTMRMwEQYDVQQIDApDYWxpZm9ybmlh
MRAwDgYDVQQKDAdTeW5hZGlhMRAwDgYDVQQLDAduYXRzLmlvMSkwJwYDVQQDDCBD
ZXJ0aWZpY2F0ZSBBdXRob3JpdHkgMjAyMi0wNy0yOIIUUbd79SbAx/TJPRA+oYaM
R2cqRmAwOwYDVR0RBDQwMoIJbG9jYWxob3N0hwR/AAABhxAAAAAAAAAAAAAAAAAA
AAABgQ1kZXJla0BuYXRzLmlvMBEGCWCGSAGG+EIBAQQEAwIHgDALBgNVHQ8EBAMC
BaAwEwYDVR0lBAwwCgYIKwYBBQUHAwIwDQYJKoZIhvcNAQELBQADggEBAEvApnBJ
+i3Amd8PCxseSmjrxEh80pOdymbixnYPSnla+K3Q3hitBWYXHcIPAHbSonB/OFEt
aa7TWfu6w01aaei9JXMix5PHBcISMdBaThEvdBBmwJi5K0PwYSIFguz3VyrMVp1E
1C2AEF2HMTnTfxI1y2AR/CkiLBerhV+DtFfRZ3qGBBDc6ISw8x02mnHSx/LONmM6
wW5LKdl3yOC5/XN3P4Meu5kfbGfa0TSyR6JK7wAjAk8Q7ySycADOJj5yX6WKHSs+
NC3HxWDcM2mIHgajw5BYCXHKatl+E1qBwA1EQFJBjRvpL0zNaGho02DHP2Fcq2Wk
mMmLe7X83IbRoxM=
-----END CERTIFICATE-----
