Certificate:
    Data:
        Version: 3 (0x2)
        Serial Number:
            77:66:48:ec:91:1a:c2:f9:89:23:2c:a7:03:01:fc:5a:7c:92:ad:b0
        Signature Algorithm: sha256WithRSAEncryption
        Issuer: C=US, ST=California, O=Synadia, OU=nats.io, CN=Certificate Authority 2022-07-28
        Validity
            Not Before: Jul 28 06:52:52 2022 GMT
            Not After : Jul 25 06:52:52 2032 GMT
        Subject: C=US, ST=California, O=Synadia, OU=nats.io, CN=localhost
        Subject Public Key Info:
            Public Key Algorithm: rsaEncryption
                RSA Public-Key: (2048 bit)
                Modulus:
                    00:e4:2f:ec:ba:66:87:36:a8:09:ab:66:9b:cc:77:
                    24:50:e0:29:4d:c9:98:c8:9f:08:1c:a5:66:0a:b6:
                    83:38:8a:3a:f3:3c:16:64:fe:13:b6:02:bd:50:64:
                    7d:bb:19:a5:ec:e1:1c:2f:1c:30:be:cd:07:c4:33:
                    1f:ae:e2:7f:c5:11:f0:d3:1d:2a:4b:28:66:c1:a0:
                    09:52:77:64:75:b7:86:a9:63:cf:a4:29:c8:ad:87:
                    3d:79:71:6b:19:34:86:23:80:ed:ed:e6:eb:29:c4:
                    6f:2c:9a:c8:ef:da:6a:4e:e5:c9:ce:ef:48:87:26:
                    11:d3:f2:2c:4f:d2:a8:b6:26:b1:1d:48:49:9f:f5:
                    5a:d4:8a:30:a8:67:1c:8a:b9:3a:13:5d:04:82:e4:
                    89:aa:4b:ec:13:59:f7:92:32:33:8f:28:df:50:98:
                    65:92:0a:35:cc:c5:04:e3:86:ac:69:cc:6a:84:30:
                    91:af:af:44:4a:e8:9f:26:0a:f6:1b:78:f6:90:81:
                    b1:eb:11:e6:85:1e:42:0e:09:15:e5:e3:36:86:b2:
                    46:38:b7:81:c2:c4:16:72:b9:a7:55:89:03:78:28:
                    e0:2e:29:17:ce:58:2f:16:80:34:b2:5e:02:00:11:
                    01:2c:35:ac:bb:0e:2d:41:00:6d:0c:85:94:1a:f6:
                    7a:8b
                Exponent: 65537 (0x10001)
        X509v3 extensions:
            X509v3 Basic Constraints: 
                CA:FALSE
            Netscape Comment: 
                nats.io nats-server test-suite certificate
            X509v3 Subject Key Identifier: 
                86:48:10:75:95:44:01:FC:76:A0:96:E9:35:52:55:A6:38:8C:5F:37
            X509v3 Authority Key Identifier: 
                keyid:4A:C2:12:A8:56:1F:08:4A:9B:33:42:10:F2:75:86:C3:45:17:4C:14
                DirName:/C=US/ST=California/O=Synadia/OU=nats.io/CN=Certificate Authority 2022-07-28
                serial:51:B7:7B:F5:26:C0:C7:F4:C9:3D:10:3E:A1:86:8C:47:67:2A:46:60

            X509v3 Subject Alternative Name: 
                DNS:localhost, IP Address:127.0.0.1, IP Address:0:0:0:0:0:0:0:1, email:derek@nats.io
            Netscape Cert Type: 
                SSL Client
            X509v3 Key Usage: 
                Digital Signature, Key Encipherment
            X509v3 Extended Key Usage: 
                TLS Web Client Authentication
    Signature Algorithm: sha256WithRSAEncryption
         60:5a:06:a5:6e:b7:96:e9:49:8f:eb:52:7b:1d:9b:5d:5b:fb:
         ec:6c:b5:b6:fa:6c:78:2c:9a:7d:d4:ee:02:17:06:6e:05:4d:
         d5:be:c9:b9:66:98:b5:5e:5f:87:f1:10:80:10:02:95:4a:53:
         55:b9:0d:34:3a:7e:53:de:d1:70:34:12:76:f7:64:4c:e0:b5:
         3c:b3:d3:79:83:dc:90:07:07:ca:9e:13:c2:4e:23:32:2d:be:
         1a:9d:fd:6c:07:5c:e3:e8:76:f9:12:11:1c:05:67:cd:f6:ea:
         4b:aa:4b:fb:ff:3e:c2:0c:df:3e:4e:8f:54:1f:20:ea:17:52:
         c9:af:e6:bc:aa:90:56:ea:48:eb:57:10:5d:e8:83:55:e3:1d:
         d1:e0:6f:f2:e1:d0:a3:cf:e6:4c:9a:62:1b:6e:eb:bb:c2:62:
         c7:a7:53:c3:ee:c0:c5:97:fe:cd:35:1f:0b:ad:cc:15:51:cb:
         2e:26:5a:58:74:bf:a9:04:71:65:eb:df:32:ea:6c:af:82:2b:
         5b:21:3c:20:6a:01:36:65:80:48:3a:fd:39:52:70:f6:55:6a:
         9e:82:d6:7a:7c:29:71:d3:e0:8a:91:7a:fd:29:94:71:43:eb:
         a2:e1:eb:84:59:cd:5d:54:c0:e3:ac:c2:2d:93:08:37:f1:61:
         0e:b4:bc:c6
-----BEGIN CERTIFICATE-----
MIIE5zCCA8+gAwIBAgIUd2ZI7JEawvmJIyynAwH8WnySrbAwDQYJKoZIhvcNAQEL
BQAwcTELMAkGA1UEBhMCVVMxEzARBgNVBAgMCkNhbGlmb3JuaWExEDAOBgNVBAoM
B1N5bmFkaWExEDAOBgNVBAsMB25hdHMuaW8xKTAnBgNVBAMMIENlcnRpZmljYXRl
IEF1dGhvcml0eSAyMDIyLTA3LTI4MB4XDTIyMDcyODA2NTI1MloXDTMyMDcyNTA2
NTI1MlowWjELMAkGA1UEBhMCVVMxEzARBgNVBAgMCkNhbGlmb3JuaWExEDAOBgNV
BAoMB1N5bmFkaWExEDAOBgNVBAsMB25hdHMuaW8xEjAQBgNVBAMMCWxvY2FsaG9z
dDCCASIwDQYJKoZIhvcNAQEBBQADggEPADCCAQoCggEBAOQv7LpmhzaoCatmm8x3
JFDgKU3JmMifCBylZgq2gziKOvM8FmT+E7YCvVBkfbsZpezhHC8cML7NB8QzH67i
f8UR8NMdKksoZsGgCVJ3ZHW3hqljz6QpyK2HPXlxaxk0hiOA7e3m6ynEbyyayO/a
ak7lyc7vSIcmEdPyLE/SqLYmsR1ISZ/1WtSKMKhnHIq5OhNdBILkiapL7BNZ95Iy
M48o31CYZZIKNczFBOOGrGnMaoQwka+vREronyYK9ht49pCBsesR5oUeQg4JFeXj
NoayRji3gcLEFnK5p1WJA3go4C4pF85YLxaANLJeAgARASw1rLsOLUEAbQyFlBr2
eosCAwEAAaOCAYwwggGIMAkGA1UdEwQCMAAwOQYJYIZIAYb4QgENBCwWKm5hdHMu
aW8gbmF0cy1zZXJ2ZXIgdGVzdC1zdWl0ZSBjZXJ0aWZpY2F0ZTAdBgNVHQ4EFgQU
hkgQdZVEAfx2oJbpNVJVpjiMXzcwga4GA1UdIwSBpjCBo4AUSsISqFYfCEqbM0IQ
8nWGw0UXTBShdaRzMHExCzAJBgNVBAYTAlVTMRMwEQYDVQQIDApDYWxpZm9ybmlh
MRAwDgYDVQQKDAdTeW5hZGlhMRAwDgYDVQQLDAduYXRzLmlvMSkwJwYDVQQDDCBD
ZXJ0aWZpY2F0ZSBBdXRob3JpdHkgMjAyMi0wNy0yOIIUUbd79SbAx/TJPRA+oYaM
R2cqRmAwOwYDVR0RBDQwMoIJbG9jYWxob3N0hwR/AAABhxAAAAAAAAAAAAAAAAAA
AAABgQ1kZXJla0BuYXRzLmlvMBEGCWCGSAGG+EIBAQQEAwIHgDALBgNVHQ8EBAMC
BaAwEwYDVR0lBAwwCgYIKwYBBQUHAwIwDQYJKoZIhvcNAQELBQADggEBAGBaBqVu
t5bpSY/rUnsdm11b++xstbb6bHgsmn3U7gIXBm4FTdW+yblmmLVeX4fxEIAQApVK
U1W5DTQ6flPe0XA0Enb3ZEzgtTyz03mD3JAHB8qeE8JOIzItvhqd/WwHXOPodvkS
ERwFZ8326kuqS/v/PsIM3z5Oj1QfIOoXUsmv5ryqkFbqSOtXEF3og1XjHdHgb/Lh
0KPP5kyaYhtu67vCYsenU8PuwMWX/s01HwutzBVRyy4mWlh0v6kEcWXr3zLqbK+C
K1shPCBqATZlgEg6/TlScPZVap6C1np8KXHT4IqRev0plHFD66Lh64RZzV1UwOOs
wi2TCDfxYQ60vMY=
-----END CERTIFICATE-----
