Certificate:
    Data:
        Version: 3 (0x2)
        Serial Number:
            bf:bc:38:a0:02:6d:12:1f
        Signature Algorithm: sha1WithRSAEncryption
        Issuer: C=US, ST=California, L=San Francisco, O=Apcera Inc, OU=NATS Testing, CN=nats://localhost:4443//emailAddress=derek@nats.io
        Validity
            Not Before: Oct 21 23:34:25 2015 GMT
            Not After : Nov 20 23:34:25 2015 GMT
        Subject: C=US, ST=California, L=San Francisco, O=Apcera Inc, OU=NATS Testing, CN=nats://localhost:4443//emailAddress=derek@nats.io
        Subject Public Key Info:
            Public Key Algorithm: rsaEncryption
            RSA Public Key: (2048 bit)
                Modulus (2048 bit):
                    00:c9:21:1f:b0:92:24:09:21:84:35:92:86:9c:88:
                    c7:7b:1d:24:94:31:f6:e5:1e:0f:75:01:0a:bf:26:
                    b3:47:3b:f7:2c:07:01:3f:58:54:ec:00:ef:7c:72:
                    70:d9:dd:9a:00:4b:3d:5d:69:3a:ca:7f:7a:71:ce:
                    88:38:5a:5c:5b:f8:a9:da:fa:db:4a:9c:d1:00:3c:
                    ae:b4:c4:f3:d0:7a:6a:fc:98:1c:e9:bf:73:13:9e:
                    84:8b:2b:84:9f:2e:9a:f6:6f:a6:15:5e:67:38:9d:
                    5b:26:86:ed:fa:ba:ba:ac:67:c8:fe:46:b2:d0:b3:
                    62:1a:75:f3:ef:13:fb:94:96:8b:52:ee:4f:65:58:
                    73:0f:b9:31:ff:2f:ef:af:99:ab:54:7c:5e:cb:a3:
                    a1:ec:ff:cb:78:96:8c:f3:eb:63:0e:dc:df:c1:69:
                    e8:4b:0e:0b:b5:83:ab:f5:49:5e:41:c4:68:e3:58:
                    a6:b0:a4:fa:c0:7e:3a:6d:9a:dc:b4:0f:ef:24:a4:
                    dc:a1:d2:f4:31:0e:b1:7f:00:37:41:1f:77:c7:07:
                    a2:9f:bf:07:2e:f7:55:7f:69:58:c2:30:ed:6e:d4:
                    6e:27:79:35:59:44:92:0a:ce:9b:25:ff:1f:1e:00:
                    2a:70:17:9a:22:d2:1b:b0:c8:63:33:83:91:2f:ca:
                    e3:cf
                Exponent: 65537 (0x10001)
        X509v3 extensions:
            X509v3 Subject Key Identifier: 
                B7:FA:28:75:23:46:9F:20:38:A7:77:55:24:F4:EC:FA:B2:66:A8:61
            X509v3 Authority Key Identifier: 
                keyid:B7:FA:28:75:23:46:9F:20:38:A7:77:55:24:F4:EC:FA:B2:66:A8:61
                DirName:/C=US/ST=California/L=San Francisco/O=Apcera Inc/OU=NATS Testing/CN=nats://localhost:4443//emailAddress=derek@nats.io
                serial:BF:BC:38:A0:02:6D:12:1F

            X509v3 Basic Constraints: 
                CA:TRUE
    Signature Algorithm: sha1WithRSAEncryption
        70:63:bd:94:cf:6a:15:05:0a:29:7b:98:e0:40:32:69:90:90:
        b6:31:02:35:7c:d2:50:01:ee:83:31:a7:db:b2:82:17:3d:46:
        18:08:fb:e6:e0:b2:ba:30:b1:c7:48:85:3a:be:51:fb:4d:9d:
        1b:0c:7f:eb:8b:6d:8a:6d:07:e0:40:d0:af:53:71:8a:86:13:
        0c:9f:59:df:01:84:7f:8c:f3:0d:ed:c4:78:03:6a:79:d8:de:
        3e:68:c7:7f:bb:fa:91:95:15:69:a3:41:51:6e:bf:d9:6a:42:
        7c:a3:4c:62:91:23:d1:e2:b8:26:94:cf:95:01:ee:c0:3f:ec:
        66:99:28:5a:dc:e8:72:89:9c:55:16:e4:69:68:cc:a3:4b:50:
        c5:d5:77:a7:9c:e8:7f:d0:d1:91:67:a1:95:3d:43:ba:fb:6b:
        9d:4f:80:35:5c:56:b9:71:ce:04:e0:67:89:89:7d:b2:25:08:
        b4:89:44:44:c3:ff:f3:d2:25:9a:72:5f:c4:7b:50:b7:6a:cd:
        20:02:10:61:c3:a9:0c:3c:62:9d:96:68:9b:45:92:83:ba:43:
        48:c5:01:36:4c:fe:ca:e5:35:fd:43:72:57:2d:7d:13:74:94:
        bb:08:66:be:92:65:85:1c:f0:8d:c3:06:23:e9:da:3f:2c:2e:
        61:d8:dc:f8
-----BEGIN CERTIFICATE-----
MIIE3zCCA8egAwIBAgIJAL+8OKACbRIfMA0GCSqGSIb3DQEBBQUAMIGlMQswCQYD
VQQGEwJVUzETMBEGA1UECBMKQ2FsaWZvcm5pYTEWMBQGA1UEBxMNU2FuIEZyYW5j
aXNjbzETMBEGA1UEChMKQXBjZXJhIEluYzEVMBMGA1UECxMMTkFUUyBUZXN0aW5n
MR8wHQYDVQQDExZuYXRzOi8vbG9jYWxob3N0OjQ0NDMvMRwwGgYJKoZIhvcNAQkB
Fg1kZXJla0BuYXRzLmlvMB4XDTE1MTAyMTIzMzQyNVoXDTE1MTEyMDIzMzQyNVow
gaUxCzAJBgNVBAYTAlVTMRMwEQYDVQQIEwpDYWxpZm9ybmlhMRYwFAYDVQQHEw1T
YW4gRnJhbmNpc2NvMRMwEQYDVQQKEwpBcGNlcmEgSW5jMRUwEwYDVQQLEwxOQVRT
IFRlc3RpbmcxHzAdBgNVBAMTFm5hdHM6Ly9sb2NhbGhvc3Q6NDQ0My8xHDAaBgkq
hkiG9w0BCQEWDWRlcmVrQG5hdHMuaW8wggEiMA0GCSqGSIb3DQEBAQUAA4IBDwAw
ggEKAoIBAQDJIR+wkiQJIYQ1koaciMd7HSSUMfblHg91AQq/JrNHO/csBwE/WFTs
AO98cnDZ3ZoASz1daTrKf3pxzog4Wlxb+Kna+ttKnNEAPK60xPPQemr8mBzpv3MT
noSLK4SfLpr2b6YVXmc4nVsmhu36urqsZ8j+RrLQs2IadfPvE/uUlotS7k9lWHMP
uTH/L++vmatUfF7Lo6Hs/8t4lozz62MO3N/BaehLDgu1g6v1SV5BxGjjWKawpPrA
fjptmty0D+8kpNyh0vQxDrF/ADdBH3fHB6Kfvwcu91V/aVjCMO1u1G4neTVZRJIK
zpsl/x8eACpwF5oi0huwyGMzg5EvyuPPAgMBAAGjggEOMIIBCjAdBgNVHQ4EFgQU
t/oodSNGnyA4p3dVJPTs+rJmqGEwgdoGA1UdIwSB0jCBz4AUt/oodSNGnyA4p3dV
JPTs+rJmqGGhgaukgagwgaUxCzAJBgNVBAYTAlVTMRMwEQYDVQQIEwpDYWxpZm9y
bmlhMRYwFAYDVQQHEw1TYW4gRnJhbmNpc2NvMRMwEQYDVQQKEwpBcGNlcmEgSW5j
MRUwEwYDVQQLEwxOQVRTIFRlc3RpbmcxHzAdBgNVBAMTFm5hdHM6Ly9sb2NhbGhv
c3Q6NDQ0My8xHDAaBgkqhkiG9w0BCQEWDWRlcmVrQG5hdHMuaW+CCQC/vDigAm0S
HzAMBgNVHRMEBTADAQH/MA0GCSqGSIb3DQEBBQUAA4IBAQBwY72Uz2oVBQope5jg
QDJpkJC2MQI1fNJQAe6DMafbsoIXPUYYCPvm4LK6MLHHSIU6vlH7TZ0bDH/ri22K
bQfgQNCvU3GKhhMMn1nfAYR/jPMN7cR4A2p52N4+aMd/u/qRlRVpo0FRbr/ZakJ8
o0xikSPR4rgmlM+VAe7AP+xmmSha3OhyiZxVFuRpaMyjS1DF1XennOh/0NGRZ6GV
PUO6+2udT4A1XFa5cc4E4GeJiX2yJQi0iUREw//z0iWacl/Ee1C3as0gAhBhw6kM
PGKdlmibRZKDukNIxQE2TP7K5TX9Q3JXLX0TdJS7CGa+kmWFHPCNwwYj6do/LC5h
2Nz4
-----END CERTIFICATE-----
