Certificate:
    Data:
        Version: 3 (0x2)
        Serial Number:
            24:c2:9c:5f:e8:ff:5b:36:43:7b:b3:60:c5:90:4b:61:2a:2f:0a:13
        Signature Algorithm: sha256WithRSAEncryption
        Issuer: C=US, ST=California, O=Synadia, OU=nats.io, CN=Certificate Authority 2026-05-03
        Validity
            Not Before: May  3 12:40:01 2026 GMT
            Not After : Apr 30 12:40:01 2036 GMT
        Subject: C=US, ST=California, O=Synadia, OU=nats.io, CN=localhost
        Subject Public Key Info:
            Public Key Algorithm: rsaEncryption
                Public-Key: (2048 bit)
                Modulus:
                    00:e6:fb:47:65:cd:c9:a2:2d:af:8b:cd:d5:6a:79:
                    54:3c:07:5f:eb:5a:71:2b:2b:e5:6f:be:31:fb:16:
                    65:68:76:0e:59:e7:e4:57:ca:88:e9:77:d6:41:ad:
                    57:7a:42:b2:d2:54:c4:0f:7c:5b:c1:bc:61:97:e3:
                    22:3a:3e:1e:4a:5d:47:9f:6b:7d:6f:34:e3:8c:86:
                    9d:85:19:29:9a:11:58:44:4c:a1:90:d3:14:61:e1:
                    57:da:01:ea:ce:3f:90:ae:9e:5d:13:6d:2c:89:ca:
                    39:15:6b:b6:9e:32:d7:2a:4c:48:85:2f:b0:1e:d8:
                    4b:62:32:14:eb:32:b6:29:04:34:3c:af:39:b6:8b:
                    52:32:4d:bf:43:5f:9b:fb:0d:43:a6:ad:2c:a7:41:
                    29:55:c9:70:b3:b5:15:46:34:bf:e4:1e:52:2d:a4:
                    49:2e:d5:21:ed:fc:00:f7:a2:0b:bc:12:0a:90:64:
                    50:7c:c5:14:70:f5:fb:9b:62:08:78:43:49:31:f3:
                    47:b8:93:d4:2d:4c:a9:dc:17:70:76:34:66:ff:65:
                    c1:39:67:e9:a6:1c:80:6a:f0:9d:b3:28:c8:a3:3a:
                    b7:5d:de:6e:53:6d:09:b3:0d:b1:13:10:e8:ec:e0:
                    bd:5e:a1:94:4b:70:bf:dc:bd:8b:b9:82:65:dd:af:
                    81:7b
                Exponent: 65537 (0x10001)
        X509v3 extensions:
            X509v3 Basic Constraints: 
                CA:FALSE
            Netscape Comment: 
                nats.io nats-server test-suite certificate
            X509v3 Subject Key Identifier: 
                2B:8C:A3:8B:DB:DB:5C:CE:18:DB:F6:A8:31:4E:C2:3E:EE:D3:40:7E
            X509v3 Authority Key Identifier: 
                keyid:D4:C7:DB:DB:77:CF:B8:81:61:2E:18:E7:46:B3:24:0C:26:60:F8:CE
                DirName:/C=US/ST=California/O=Synadia/OU=nats.io/CN=Certificate Authority 2026-05-03
                serial:4A:7C:25:EB:FB:D6:47:99:67:9C:8D:34:80:67:26:55:4E:F6:E0:6D
            X509v3 Subject Alternative Name: 
                DNS:localhost, IP Address:127.0.0.1, IP Address:0:0:0:0:0:0:0:1
            Netscape Cert Type: 
                SSL Client, SSL Server
            X509v3 Key Usage: 
                Digital Signature, Key Encipherment
            X509v3 Extended Key Usage: 
                TLS Web Server Authentication, Netscape Server Gated Crypto, Microsoft Server Gated Crypto, TLS Web Client Authentication
    Signature Algorithm: sha256WithRSAEncryption
    Signature Value:
        6f:1e:b4:ac:2c:1a:22:6d:35:ac:8c:75:16:f5:dd:8d:09:d8:
        42:96:bf:00:ef:bb:67:30:73:6a:25:da:98:b9:27:e3:17:f6:
        7d:25:db:b6:8f:d5:b5:32:2c:d5:fb:fc:df:c7:25:ad:04:26:
        ee:bd:4b:e0:01:ff:7e:02:2a:c6:a5:26:3b:b9:2e:d8:35:2d:
        31:b8:b1:d0:10:ce:3c:57:40:27:43:89:23:bc:e9:de:3c:ae:
        2f:ff:96:e8:67:7e:f8:d6:65:f1:d6:6b:e4:c2:ae:72:5c:b5:
        9b:10:74:d4:91:1d:07:a6:1f:c9:9c:d8:32:28:6f:bb:24:c6:
        20:d5:73:d2:ae:2c:f7:40:d3:66:a3:01:d0:32:30:f0:d7:9c:
        e2:08:9e:2f:c8:95:7c:78:a4:49:24:1e:88:d1:eb:19:f5:bd:
        fa:ee:ec:a6:d3:e7:59:5e:c0:69:df:9e:45:00:da:32:64:08:
        a0:c1:43:c4:45:05:ff:b6:c5:a2:cb:d7:58:c0:b3:61:b9:c7:
        c4:2a:78:ab:26:f4:17:f8:d9:1c:71:df:6d:f8:b1:70:2f:39:
        c9:42:b2:82:b3:f8:00:d6:a3:90:91:58:06:8f:ba:52:2f:a6:
        36:43:53:48:21:4e:12:00:32:1a:73:33:65:7e:b2:03:34:bf:
        d1:dd:d7:1e
-----BEGIN CERTIFICATE-----
MIIE+TCCA+GgAwIBAgIUJMKcX+j/WzZDe7NgxZBLYSovChMwDQYJKoZIhvcNAQEL
BQAwcTELMAkGA1UEBhMCVVMxEzARBgNVBAgMCkNhbGlmb3JuaWExEDAOBgNVBAoM
B1N5bmFkaWExEDAOBgNVBAsMB25hdHMuaW8xKTAnBgNVBAMMIENlcnRpZmljYXRl
IEF1dGhvcml0eSAyMDI2LTA1LTAzMB4XDTI2MDUwMzEyNDAwMVoXDTM2MDQzMDEy
NDAwMVowWjELMAkGA1UEBhMCVVMxEzARBgNVBAgMCkNhbGlmb3JuaWExEDAOBgNV
BAoMB1N5bmFkaWExEDAOBgNVBAsMB25hdHMuaW8xEjAQBgNVBAMMCWxvY2FsaG9z
dDCCASIwDQYJKoZIhvcNAQEBBQADggEPADCCAQoCggEBAOb7R2XNyaItr4vN1Wp5
VDwHX+tacSsr5W++MfsWZWh2Dlnn5FfKiOl31kGtV3pCstJUxA98W8G8YZfjIjo+
HkpdR59rfW8044yGnYUZKZoRWERMoZDTFGHhV9oB6s4/kK6eXRNtLInKORVrtp4y
1ypMSIUvsB7YS2IyFOsytikENDyvObaLUjJNv0Nfm/sNQ6atLKdBKVXJcLO1FUY0
v+QeUi2kSS7VIe38APeiC7wSCpBkUHzFFHD1+5tiCHhDSTHzR7iT1C1MqdwXcHY0
Zv9lwTln6aYcgGrwnbMoyKM6t13eblNtCbMNsRMQ6OzgvV6hlEtwv9y9i7mCZd2v
gXsCAwEAAaOCAZ4wggGaMAkGA1UdEwQCMAAwOQYJYIZIAYb4QgENBCwWKm5hdHMu
aW8gbmF0cy1zZXJ2ZXIgdGVzdC1zdWl0ZSBjZXJ0aWZpY2F0ZTAdBgNVHQ4EFgQU
K4yji9vbXM4Y2/aoMU7CPu7TQH4wga4GA1UdIwSBpjCBo4AU1Mfb23fPuIFhLhjn
RrMkDCZg+M6hdaRzMHExCzAJBgNVBAYTAlVTMRMwEQYDVQQIDApDYWxpZm9ybmlh
MRAwDgYDVQQKDAdTeW5hZGlhMRAwDgYDVQQLDAduYXRzLmlvMSkwJwYDVQQDDCBD
ZXJ0aWZpY2F0ZSBBdXRob3JpdHkgMjAyNi0wNS0wM4IUSnwl6/vWR5lnnI00gGcm
VU724G0wLAYDVR0RBCUwI4IJbG9jYWxob3N0hwR/AAABhxAAAAAAAAAAAAAAAAAA
AAABMBEGCWCGSAGG+EIBAQQEAwIGwDALBgNVHQ8EBAMCBaAwNAYDVR0lBC0wKwYI
KwYBBQUHAwEGCWCGSAGG+EIEAQYKKwYBBAGCNwoDAwYIKwYBBQUHAwIwDQYJKoZI
hvcNAQELBQADggEBAG8etKwsGiJtNayMdRb13Y0J2EKWvwDvu2cwc2ol2pi5J+MX
9n0l27aP1bUyLNX7/N/HJa0EJu69S+AB/34CKsalJju5Ltg1LTG4sdAQzjxXQCdD
iSO86d48ri//luhnfvjWZfHWa+TCrnJctZsQdNSRHQemH8mc2DIob7skxiDVc9Ku
LPdA02ajAdAyMPDXnOIIni/IlXx4pEkkHojR6xn1vfru7KbT51lewGnfnkUA2jJk
CKDBQ8RFBf+2xaLL11jAs2G5x8QqeKsm9Bf42Rxx3234sXAvOclCsoKz+ADWo5CR
WAaPulIvpjZDU0ghThIAMhpzM2V+sgM0v9Hd1x4=
-----END CERTIFICATE-----
