Certificate:
    Data:
        Version: 3 (0x2)
        Serial Number:
            7f:da:fc:40:69:2a:9f:52:26:7e:4c:98:15:5d:cc:69:84:be:9c:a5
        Signature Algorithm: sha256WithRSAEncryption
        Issuer: C=US, ST=California, O=Synadia, OU=nats.io, CN=Certificate Authority 2022-07-28
        Validity
            Not Before: Jul 28 06:52:52 2022 GMT
            Not After : Jul 25 06:52:52 2032 GMT
        Subject: C=US, ST=California, O=Synadia, OU=nats.io, CN=localhost
        Subject Public Key Info:
            Public Key Algorithm: rsaEncryption
                RSA Public-Key: (2048 bit)
                Modulus:
                    00:e6:fb:47:65:cd:c9:a2:2d:af:8b:cd:d5:6a:79:
                    54:3c:07:5f:eb:5a:71:2b:2b:e5:6f:be:31:fb:16:
                    65:68:76:0e:59:e7:e4:57:ca:88:e9:77:d6:41:ad:
                    57:7a:42:b2:d2:54:c4:0f:7c:5b:c1:bc:61:97:e3:
                    22:3a:3e:1e:4a:5d:47:9f:6b:7d:6f:34:e3:8c:86:
                    9d:85:19:29:9a:11:58:44:4c:a1:90:d3:14:61:e1:
                    57:da:01:ea:ce:3f:90:ae:9e:5d:13:6d:2c:89:ca:
                    39:15:6b:b6:9e:32:d7:2a:4c:48:85:2f:b0:1e:d8:
                    4b:62:32:14:eb:32:b6:29:04:34:3c:af:39:b6:8b:
                    52:32:4d:bf:43:5f:9b:fb:0d:43:a6:ad:2c:a7:41:
                    29:55:c9:70:b3:b5:15:46:34:bf:e4:1e:52:2d:a4:
                    49:2e:d5:21:ed:fc:00:f7:a2:0b:bc:12:0a:90:64:
                    50:7c:c5:14:70:f5:fb:9b:62:08:78:43:49:31:f3:
                    47:b8:93:d4:2d:4c:a9:dc:17:70:76:34:66:ff:65:
                    c1:39:67:e9:a6:1c:80:6a:f0:9d:b3:28:c8:a3:3a:
                    b7:5d:de:6e:53:6d:09:b3:0d:b1:13:10:e8:ec:e0:
                    bd:5e:a1:94:4b:70:bf:dc:bd:8b:b9:82:65:dd:af:
                    81:7b
                Exponent: 65537 (0x10001)
        X509v3 extensions:
            X509v3 Basic Constraints: 
                CA:FALSE
            Netscape Comment: 
                nats.io nats-server test-suite certificate
            X509v3 Subject Key Identifier: 
                2B:8C:A3:8B:DB:DB:5C:CE:18:DB:F6:A8:31:4E:C2:3E:EE:D3:40:7E
            X509v3 Authority Key Identifier: 
                keyid:4A:C2:12:A8:56:1F:08:4A:9B:33:42:10:F2:75:86:C3:45:17:4C:14
                DirName:/C=US/ST=California/O=Synadia/OU=nats.io/CN=Certificate Authority 2022-07-28
                serial:51:B7:7B:F5:26:C0:C7:F4:C9:3D:10:3E:A1:86:8C:47:67:2A:46:60

            X509v3 Subject Alternative Name: 
                DNS:localhost, IP Address:127.0.0.1, IP Address:0:0:0:0:0:0:0:1
            Netscape Cert Type: 
                SSL Client, SSL Server
            X509v3 Key Usage: 
                Digital Signature, Key Encipherment
            X509v3 Extended Key Usage: 
                TLS Web Server Authentication, Netscape Server Gated Crypto, Microsoft Server Gated Crypto, TLS Web Client Authentication
    Signature Algorithm: sha256WithRSAEncryption
         3c:59:f0:8d:f2:06:96:14:68:3a:7c:69:96:6e:2e:7a:43:9e:
         65:f2:ef:73:2a:fc:71:cf:44:fc:c9:dc:f8:09:4d:f9:aa:69:
         65:9c:ff:d0:cd:6a:15:d0:40:ed:8b:c9:69:9a:73:4f:54:c3:
         a1:ad:63:28:4d:2d:84:6f:c1:e0:3e:98:1c:9f:a4:b7:2f:de:
         e0:2c:f3:a2:3d:52:46:64:f4:ad:da:d4:32:f1:4f:03:54:fa:
         7a:61:25:b8:e2:62:5f:86:82:ee:48:d7:7e:e1:10:f8:71:fe:
         eb:bf:4a:eb:3b:b6:f4:b6:eb:79:b0:6b:5b:4c:c4:a7:46:ff:
         7b:38:09:82:d3:bf:4b:b0:0b:f8:81:01:44:fb:b1:6b:75:6a:
         86:c6:0f:d7:58:a3:9f:e7:3b:41:77:31:24:ce:00:01:ef:a5:
         63:05:78:10:61:43:c1:6d:68:7b:7a:94:e8:d4:c5:5e:96:b2:
         14:62:3b:1a:80:12:e7:21:70:6e:ee:53:cd:85:ae:d7:c2:73:
         58:26:d8:9c:de:d3:94:0b:81:7b:a2:df:0d:b9:03:f7:81:53:
         d5:be:dd:f7:4f:39:61:32:f6:1a:a9:8d:4d:f8:07:7e:d2:7c:
         e6:58:3e:ad:1c:b0:74:d9:f8:99:36:94:c2:f7:14:63:8a:75:
         e0:41:d0:1c
-----BEGIN CERTIFICATE-----
MIIE+TCCA+GgAwIBAgIUf9r8QGkqn1ImfkyYFV3MaYS+nKUwDQYJKoZIhvcNAQEL
BQAwcTELMAkGA1UEBhMCVVMxEzARBgNVBAgMCkNhbGlmb3JuaWExEDAOBgNVBAoM
B1N5bmFkaWExEDAOBgNVBAsMB25hdHMuaW8xKTAnBgNVBAMMIENlcnRpZmljYXRl
IEF1dGhvcml0eSAyMDIyLTA3LTI4MB4XDTIyMDcyODA2NTI1MloXDTMyMDcyNTA2
NTI1MlowWjELMAkGA1UEBhMCVVMxEzARBgNVBAgMCkNhbGlmb3JuaWExEDAOBgNV
BAoMB1N5bmFkaWExEDAOBgNVBAsMB25hdHMuaW8xEjAQBgNVBAMMCWxvY2FsaG9z
dDCCASIwDQYJKoZIhvcNAQEBBQADggEPADCCAQoCggEBAOb7R2XNyaItr4vN1Wp5
VDwHX+tacSsr5W++MfsWZWh2Dlnn5FfKiOl31kGtV3pCstJUxA98W8G8YZfjIjo+
HkpdR59rfW8044yGnYUZKZoRWERMoZDTFGHhV9oB6s4/kK6eXRNtLInKORVrtp4y
1ypMSIUvsB7YS2IyFOsytikENDyvObaLUjJNv0Nfm/sNQ6atLKdBKVXJcLO1FUY0
v+QeUi2kSS7VIe38APeiC7wSCpBkUHzFFHD1+5tiCHhDSTHzR7iT1C1MqdwXcHY0
Zv9lwTln6aYcgGrwnbMoyKM6t13eblNtCbMNsRMQ6OzgvV6hlEtwv9y9i7mCZd2v
gXsCAwEAAaOCAZ4wggGaMAkGA1UdEwQCMAAwOQYJYIZIAYb4QgENBCwWKm5hdHMu
aW8gbmF0cy1zZXJ2ZXIgdGVzdC1zdWl0ZSBjZXJ0aWZpY2F0ZTAdBgNVHQ4EFgQU
K4yji9vbXM4Y2/aoMU7CPu7TQH4wga4GA1UdIwSBpjCBo4AUSsISqFYfCEqbM0IQ
8nWGw0UXTBShdaRzMHExCzAJBgNVBAYTAlVTMRMwEQYDVQQIDApDYWxpZm9ybmlh
MRAwDgYDVQQKDAdTeW5hZGlhMRAwDgYDVQQLDAduYXRzLmlvMSkwJwYDVQQDDCBD
ZXJ0aWZpY2F0ZSBBdXRob3JpdHkgMjAyMi0wNy0yOIIUUbd79SbAx/TJPRA+oYaM
R2cqRmAwLAYDVR0RBCUwI4IJbG9jYWxob3N0hwR/AAABhxAAAAAAAAAAAAAAAAAA
AAABMBEGCWCGSAGG+EIBAQQEAwIGwDALBgNVHQ8EBAMCBaAwNAYDVR0lBC0wKwYI
KwYBBQUHAwEGCWCGSAGG+EIEAQYKKwYBBAGCNwoDAwYIKwYBBQUHAwIwDQYJKoZI
hvcNAQELBQADggEBADxZ8I3yBpYUaDp8aZZuLnpDnmXy73Mq/HHPRPzJ3PgJTfmq
aWWc/9DNahXQQO2LyWmac09Uw6GtYyhNLYRvweA+mByfpLcv3uAs86I9UkZk9K3a
1DLxTwNU+nphJbjiYl+Ggu5I137hEPhx/uu/Sus7tvS263mwa1tMxKdG/3s4CYLT
v0uwC/iBAUT7sWt1aobGD9dYo5/nO0F3MSTOAAHvpWMFeBBhQ8FtaHt6lOjUxV6W
shRiOxqAEuchcG7uU82FrtfCc1gm2Jze05QLgXui3w25A/eBU9W+3fdPOWEy9hqp
jU34B37SfOZYPq0csHTZ+Jk2lML3FGOKdeBB0Bw=
-----END CERTIFICATE-----
