Certificate:
    Data:
        Version: 3 (0x2)
        Serial Number:
            1d:5c:7c:59:0c:cd:27:83:dd:97:64:53:b0:44:3c:b4:5b:d4:fc:d1
        Signature Algorithm: sha256WithRSAEncryption
        Issuer: C=US, ST=California, O=Synadia, OU=nats.io, CN=Certificate Authority 2022-08-27
        Validity
            Not Before: Aug 27 20:23:02 2022 GMT
            Not After : Aug 24 20:23:02 2032 GMT
        Subject: C=US, ST=California, O=Synadia, OU=nats.io, CN=localhost
        Subject Public Key Info:
            Public Key Algorithm: rsaEncryption
                RSA Public-Key: (2048 bit)
                Modulus:
                    00:ad:f0:87:3f:32:66:87:7a:31:9b:ca:54:0a:ae:
                    a6:1a:ca:25:d5:c5:fc:49:6b:21:0b:de:a7:15:c8:
                    9c:3c:cd:41:1d:32:25:77:68:7b:83:e8:5d:14:7a:
                    2e:0b:ea:41:91:a4:20:ec:20:17:0f:cb:8d:4c:1b:
                    88:a0:d2:77:46:65:7e:d1:a0:e6:4c:4b:c6:8c:39:
                    a1:b3:5b:34:57:c8:a1:10:0c:13:54:3a:74:90:7b:
                    3b:ba:da:41:62:81:f5:dc:b5:73:6c:83:38:f4:a1:
                    52:ab:bd:c2:95:3e:79:ff:af:a4:ae:df:d6:11:d9:
                    29:20:b8:b4:15:e3:32:93:5c:36:ce:56:b4:01:02:
                    a1:45:31:a3:a1:1e:ea:b8:c4:01:04:57:11:44:f4:
                    55:ea:e2:ae:68:08:70:85:c0:5b:ff:ba:bf:de:8b:
                    bc:a1:c6:03:a2:2f:8a:eb:9e:b7:79:3a:67:6a:b0:
                    70:d3:e8:08:a7:12:24:d5:bb:57:88:72:37:c8:e6:
                    2e:db:87:e0:2a:71:1a:2c:90:9c:88:29:0c:75:28:
                    84:d6:7f:75:2d:50:08:36:2b:cf:f3:ba:33:72:1e:
                    7a:07:db:20:da:98:3b:39:86:96:4c:e2:4a:42:61:
                    1a:9b:0b:67:4d:6d:13:d1:9f:40:df:12:c7:8d:9d:
                    50:69
                Exponent: 65537 (0x10001)
        X509v3 extensions:
            X509v3 Basic Constraints: 
                CA:FALSE
            Netscape Comment: 
                nats.io nats-server test-suite certificate
            X509v3 Subject Key Identifier: 
                C9:AA:3C:08:39:7E:C1:42:C0:3D:B7:2F:84:21:E7:8A:30:E7:C7:B1
            X509v3 Authority Key Identifier: 
                keyid:FE:CF:7F:3E:2E:EE:C4:AD:EA:5B:6F:88:45:6C:C7:88:48:14:8B:3A
                DirName:/C=US/ST=California/O=Synadia/OU=nats.io/CN=Certificate Authority 2022-08-27
                serial:49:9C:16:ED:BB:5C:F4:45:1B:AC:C5:AD:8C:7A:5B:33:40:B6:6D:21

            X509v3 Subject Alternative Name: 
                DNS:localhost
            Netscape Cert Type: 
                SSL Client, SSL Server
            X509v3 Key Usage: 
                Digital Signature, Key Encipherment
            X509v3 Extended Key Usage: 
                TLS Web Server Authentication, Netscape Server Gated Crypto, Microsoft Server Gated Crypto, TLS Web Client Authentication
    Signature Algorithm: sha256WithRSAEncryption
         9b:63:ae:ec:56:ec:0c:7a:d5:88:d1:0a:0a:81:29:37:4f:a6:
         08:b8:78:78:23:af:5b:b7:65:61:d7:64:2a:c9:e7:a6:d2:b1:
         cb:36:bf:23:2e:2d:48:85:7f:16:0f:64:af:03:db:5d:0e:a7:
         14:c5:f6:04:b2:6b:92:27:ba:cb:d2:13:25:a2:15:b0:8e:4a:
         2d:eb:41:18:09:b1:68:d5:0f:6b:56:da:86:ed:4a:7a:29:30:
         09:77:63:a4:64:3d:e3:2e:d7:6f:1a:8c:96:c9:cb:81:fe:a3:
         6d:35:e3:09:ea:9b:2e:da:8c:8e:c8:c9:69:b1:83:e7:6f:2d:
         5f:a1:ac:32:ae:29:57:a9:5c:9b:7d:f0:fd:47:3c:f3:6a:d0:
         eb:77:8d:70:06:a2:74:3d:d6:37:1e:7b:e7:d9:e4:33:c9:9d:
         ad:fa:24:c6:4d:e2:2c:c9:25:cb:75:be:8d:e9:83:7e:ad:db:
         53:9e:97:be:d5:7f:83:90:fc:75:1d:02:29:b7:99:18:a3:39:
         25:a2:54:b7:21:7d:be:0b:4c:ea:ff:80:b9:4b:5e:21:ed:25:
         ad:d4:62:52:59:79:83:32:df:30:a1:64:68:05:cc:35:ad:8b:
         d3:66:6b:b1:31:b7:b3:b2:d8:0f:5b:96:40:ef:57:1d:7f:b0:
         b0:f4:e9:db
-----BEGIN CERTIFICATE-----
MIIE4TCCA8mgAwIBAgIUHVx8WQzNJ4Pdl2RTsEQ8tFvU/NEwDQYJKoZIhvcNAQEL
BQAwcTELMAkGA1UEBhMCVVMxEzARBgNVBAgMCkNhbGlmb3JuaWExEDAOBgNVBAoM
B1N5bmFkaWExEDAOBgNVBAsMB25hdHMuaW8xKTAnBgNVBAMMIENlcnRpZmljYXRl
IEF1dGhvcml0eSAyMDIyLTA4LTI3MB4XDTIyMDgyNzIwMjMwMloXDTMyMDgyNDIw
MjMwMlowWjELMAkGA1UEBhMCVVMxEzARBgNVBAgMCkNhbGlmb3JuaWExEDAOBgNV
BAoMB1N5bmFkaWExEDAOBgNVBAsMB25hdHMuaW8xEjAQBgNVBAMMCWxvY2FsaG9z
dDCCASIwDQYJKoZIhvcNAQEBBQADggEPADCCAQoCggEBAK3whz8yZod6MZvKVAqu
phrKJdXF/ElrIQvepxXInDzNQR0yJXdoe4PoXRR6LgvqQZGkIOwgFw/LjUwbiKDS
d0ZlftGg5kxLxow5obNbNFfIoRAME1Q6dJB7O7raQWKB9dy1c2yDOPShUqu9wpU+
ef+vpK7f1hHZKSC4tBXjMpNcNs5WtAECoUUxo6Ee6rjEAQRXEUT0VerirmgIcIXA
W/+6v96LvKHGA6Iviuuet3k6Z2qwcNPoCKcSJNW7V4hyN8jmLtuH4CpxGiyQnIgp
DHUohNZ/dS1QCDYrz/O6M3IeegfbINqYOzmGlkziSkJhGpsLZ01tE9GfQN8Sx42d
UGkCAwEAAaOCAYYwggGCMAkGA1UdEwQCMAAwOQYJYIZIAYb4QgENBCwWKm5hdHMu
aW8gbmF0cy1zZXJ2ZXIgdGVzdC1zdWl0ZSBjZXJ0aWZpY2F0ZTAdBgNVHQ4EFgQU
yao8CDl+wULAPbcvhCHnijDnx7Ewga4GA1UdIwSBpjCBo4AU/s9/Pi7uxK3qW2+I
RWzHiEgUizqhdaRzMHExCzAJBgNVBAYTAlVTMRMwEQYDVQQIDApDYWxpZm9ybmlh
MRAwDgYDVQQKDAdTeW5hZGlhMRAwDgYDVQQLDAduYXRzLmlvMSkwJwYDVQQDDCBD
ZXJ0aWZpY2F0ZSBBdXRob3JpdHkgMjAyMi0wOC0yN4IUSZwW7btc9EUbrMWtjHpb
M0C2bSEwFAYDVR0RBA0wC4IJbG9jYWxob3N0MBEGCWCGSAGG+EIBAQQEAwIGwDAL
BgNVHQ8EBAMCBaAwNAYDVR0lBC0wKwYIKwYBBQUHAwEGCWCGSAGG+EIEAQYKKwYB
BAGCNwoDAwYIKwYBBQUHAwIwDQYJKoZIhvcNAQELBQADggEBAJtjruxW7Ax61YjR
CgqBKTdPpgi4eHgjr1u3ZWHXZCrJ56bSscs2vyMuLUiFfxYPZK8D210OpxTF9gSy
a5InusvSEyWiFbCOSi3rQRgJsWjVD2tW2obtSnopMAl3Y6RkPeMu128ajJbJy4H+
o2014wnqmy7ajI7IyWmxg+dvLV+hrDKuKVepXJt98P1HPPNq0Ot3jXAGonQ91jce
e+fZ5DPJna36JMZN4izJJct1vo3pg36t21Oel77Vf4OQ/HUdAim3mRijOSWiVLch
fb4LTOr/gLlLXiHtJa3UYlJZeYMy3zChZGgFzDWti9Nma7Ext7Oy2A9blkDvVx1/
sLD06ds=
-----END CERTIFICATE-----
