Certificate:
    Data:
        Version: 3 (0x2)
        Serial Number:
            2a:80:02:bf:5b:15:ff:65:2c:c6:9f:0c:77:e5:34:69:a5:cb:29:c5
        Signature Algorithm: sha256WithRSAEncryption
        Issuer: C=US, ST=California, O=Synadia, OU=nats.io, CN=Certificate Authority 2022-07-28
        Validity
            Not Before: Jul 28 06:52:52 2022 GMT
            Not After : Jul 25 06:52:52 2032 GMT
        Subject: C=US, ST=California, O=Synadia, OU=nats.io, CN=ip-only-localhost
        Subject Public Key Info:
            Public Key Algorithm: rsaEncryption
                RSA Public-Key: (2048 bit)
                Modulus:
                    00:bd:98:dc:14:49:92:43:1a:73:36:75:6d:c1:33:
                    73:b3:e7:f6:8a:e2:03:f7:24:93:eb:36:da:8f:64:
                    c6:56:19:b7:92:d2:f1:df:d3:4f:7e:78:ce:db:dc:
                    6e:d4:5c:58:a4:a7:79:6b:49:ff:30:37:d9:71:92:
                    21:d7:91:72:8d:1a:21:75:0f:80:23:f0:2f:0e:6a:
                    1a:62:9b:eb:1e:74:df:df:61:8a:05:a8:31:b7:d4:
                    97:ee:c6:60:1b:6f:b1:85:9b:ac:3d:cd:a1:9e:a8:
                    b5:56:84:ce:9f:8c:64:a5:57:41:75:81:c6:00:c8:
                    d8:3d:ef:85:9c:78:04:49:5a:94:29:af:27:0a:be:
                    56:60:6b:a0:52:06:53:f5:cf:ce:47:9c:cf:50:8a:
                    1d:92:3a:21:d1:24:ed:81:e8:85:97:8c:41:46:96:
                    da:02:d7:b7:f5:ab:92:4c:ab:0a:e2:19:9f:b8:21:
                    07:5c:f7:d1:7e:6e:49:70:a9:c4:45:c3:b2:10:ab:
                    ca:50:e3:c9:ea:6f:b5:19:64:12:32:0e:93:59:f8:
                    8e:fc:a2:bc:33:f3:25:e4:59:98:6d:0e:97:76:b6:
                    da:9e:50:cf:4d:a1:6b:62:ce:47:84:1d:f7:82:8a:
                    da:d0:90:e7:a6:1f:43:25:61:57:c3:15:7e:e0:b8:
                    5c:17
                Exponent: 65537 (0x10001)
        X509v3 extensions:
            X509v3 Basic Constraints: 
                CA:FALSE
            Netscape Comment: 
                nats.io nats-server test-suite certificate
            X509v3 Subject Key Identifier: 
                0A:AC:82:F2:35:73:89:FB:49:07:EB:9C:87:72:D9:91:26:DF:84:8A
            X509v3 Authority Key Identifier: 
                keyid:4A:C2:12:A8:56:1F:08:4A:9B:33:42:10:F2:75:86:C3:45:17:4C:14
                DirName:/C=US/ST=California/O=Synadia/OU=nats.io/CN=Certificate Authority 2022-07-28
                serial:51:B7:7B:F5:26:C0:C7:F4:C9:3D:10:3E:A1:86:8C:47:67:2A:46:60

            X509v3 Subject Alternative Name: 
                IP Address:127.0.0.1, IP Address:0:0:0:0:0:0:0:1
            Netscape Cert Type: 
                SSL Client, SSL Server
            X509v3 Key Usage: 
                Digital Signature, Key Encipherment
            X509v3 Extended Key Usage: 
                TLS Web Server Authentication, Netscape Server Gated Crypto, Microsoft Server Gated Crypto, TLS Web Client Authentication
    Signature Algorithm: sha256WithRSAEncryption
         7e:f0:07:17:8c:30:9f:93:9a:a2:67:15:72:5b:38:fd:1d:24:
         f8:38:05:08:78:8d:32:30:e1:1a:e6:39:27:1e:3b:ce:08:2b:
         29:50:69:fe:87:84:14:91:1b:ff:f1:fc:ce:ff:62:33:23:c0:
         01:03:ec:b7:2e:9d:84:20:13:70:da:c0:29:c0:c7:2e:2e:06:
         59:58:d2:9b:78:d6:72:b5:8c:c0:fc:2d:76:f9:3e:61:6a:95:
         a1:15:f0:56:2b:86:89:16:56:ed:89:3c:df:a1:91:69:ff:e5:
         f2:cc:68:e9:d7:6e:35:67:32:d8:1e:80:02:10:ae:23:5a:77:
         fa:1e:d6:d1:d6:d6:fa:c7:ae:83:8a:69:77:78:02:1b:a2:ae:
         57:0e:4d:32:3d:a9:d3:ab:fd:17:91:66:f2:c5:77:ae:4a:63:
         88:be:7e:f8:d0:93:fc:62:3c:39:4d:df:c4:26:10:d4:5f:4d:
         bb:02:7a:5e:8e:0f:a6:ef:a4:0a:37:6c:2e:10:28:05:bd:b3:
         a9:42:1f:fa:96:f3:e9:61:90:07:32:f3:7a:f8:0b:57:f3:40:
         a0:53:04:36:38:ae:ef:a4:49:71:0c:58:49:c3:55:91:af:9a:
         13:7e:97:a4:4f:dd:00:51:ec:52:9c:f2:3f:eb:a1:ea:8f:bd:
         18:83:75:08
-----BEGIN CERTIFICATE-----
MIIE9jCCA96gAwIBAgIUKoACv1sV/2Usxp8Md+U0aaXLKcUwDQYJKoZIhvcNAQEL
BQAwcTELMAkGA1UEBhMCVVMxEzARBgNVBAgMCkNhbGlmb3JuaWExEDAOBgNVBAoM
B1N5bmFkaWExEDAOBgNVBAsMB25hdHMuaW8xKTAnBgNVBAMMIENlcnRpZmljYXRl
IEF1dGhvcml0eSAyMDIyLTA3LTI4MB4XDTIyMDcyODA2NTI1MloXDTMyMDcyNTA2
NTI1MlowYjELMAkGA1UEBhMCVVMxEzARBgNVBAgMCkNhbGlmb3JuaWExEDAOBgNV
BAoMB1N5bmFkaWExEDAOBgNVBAsMB25hdHMuaW8xGjAYBgNVBAMMEWlwLW9ubHkt
bG9jYWxob3N0MIIBIjANBgkqhkiG9w0BAQEFAAOCAQ8AMIIBCgKCAQEAvZjcFEmS
QxpzNnVtwTNzs+f2iuID9yST6zbaj2TGVhm3ktLx39NPfnjO29xu1FxYpKd5a0n/
MDfZcZIh15FyjRohdQ+AI/AvDmoaYpvrHnTf32GKBagxt9SX7sZgG2+xhZusPc2h
nqi1VoTOn4xkpVdBdYHGAMjYPe+FnHgESVqUKa8nCr5WYGugUgZT9c/OR5zPUIod
kjoh0STtgeiFl4xBRpbaAte39auSTKsK4hmfuCEHXPfRfm5JcKnERcOyEKvKUOPJ
6m+1GWQSMg6TWfiO/KK8M/Ml5FmYbQ6XdrbanlDPTaFrYs5HhB33gora0JDnph9D
JWFXwxV+4LhcFwIDAQABo4IBkzCCAY8wCQYDVR0TBAIwADA5BglghkgBhvhCAQ0E
LBYqbmF0cy5pbyBuYXRzLXNlcnZlciB0ZXN0LXN1aXRlIGNlcnRpZmljYXRlMB0G
A1UdDgQWBBQKrILyNXOJ+0kH65yHctmRJt+EijCBrgYDVR0jBIGmMIGjgBRKwhKo
Vh8ISpszQhDydYbDRRdMFKF1pHMwcTELMAkGA1UEBhMCVVMxEzARBgNVBAgMCkNh
bGlmb3JuaWExEDAOBgNVBAoMB1N5bmFkaWExEDAOBgNVBAsMB25hdHMuaW8xKTAn
BgNVBAMMIENlcnRpZmljYXRlIEF1dGhvcml0eSAyMDIyLTA3LTI4ghRRt3v1JsDH
9Mk9ED6hhoxHZypGYDAhBgNVHREEGjAYhwR/AAABhxAAAAAAAAAAAAAAAAAAAAAB
MBEGCWCGSAGG+EIBAQQEAwIGwDALBgNVHQ8EBAMCBaAwNAYDVR0lBC0wKwYIKwYB
BQUHAwEGCWCGSAGG+EIEAQYKKwYBBAGCNwoDAwYIKwYBBQUHAwIwDQYJKoZIhvcN
AQELBQADggEBAH7wBxeMMJ+TmqJnFXJbOP0dJPg4BQh4jTIw4RrmOSceO84IKylQ
af6HhBSRG//x/M7/YjMjwAED7LcunYQgE3DawCnAxy4uBllY0pt41nK1jMD8LXb5
PmFqlaEV8FYrhokWVu2JPN+hkWn/5fLMaOnXbjVnMtgegAIQriNad/oe1tHW1vrH
roOKaXd4AhuirlcOTTI9qdOr/ReRZvLFd65KY4i+fvjQk/xiPDlN38QmENRfTbsC
el6OD6bvpAo3bC4QKAW9s6lCH/qW8+lhkAcy83r4C1fzQKBTBDY4ru+kSXEMWEnD
VZGvmhN+l6RP3QBR7FKc8j/roeqPvRiDdQg=
-----END CERTIFICATE-----
