Certificate:
    Data:
        Version: 3 (0x2)
        Serial Number:
            08:e4:66:14:34:68:84:bf:67:22:f8:cc:58:bd:c5:ce:f4:3c:04:0a
        Signature Algorithm: sha256WithRSAEncryption
        Issuer: C=US, ST=California, O=Synadia, OU=nats.io, CN=Certificate Authority 2026-05-03
        Validity
            Not Before: May  3 12:40:01 2026 GMT
            Not After : Apr 30 12:40:01 2036 GMT
        Subject: C=US, ST=California, O=Synadia, OU=nats.io, CN=ip-only-localhost
        Subject Public Key Info:
            Public Key Algorithm: rsaEncryption
                Public-Key: (2048 bit)
                Modulus:
                    00:bd:98:dc:14:49:92:43:1a:73:36:75:6d:c1:33:
                    73:b3:e7:f6:8a:e2:03:f7:24:93:eb:36:da:8f:64:
                    c6:56:19:b7:92:d2:f1:df:d3:4f:7e:78:ce:db:dc:
                    6e:d4:5c:58:a4:a7:79:6b:49:ff:30:37:d9:71:92:
                    21:d7:91:72:8d:1a:21:75:0f:80:23:f0:2f:0e:6a:
                    1a:62:9b:eb:1e:74:df:df:61:8a:05:a8:31:b7:d4:
                    97:ee:c6:60:1b:6f:b1:85:9b:ac:3d:cd:a1:9e:a8:
                    b5:56:84:ce:9f:8c:64:a5:57:41:75:81:c6:00:c8:
                    d8:3d:ef:85:9c:78:04:49:5a:94:29:af:27:0a:be:
                    56:60:6b:a0:52:06:53:f5:cf:ce:47:9c:cf:50:8a:
                    1d:92:3a:21:d1:24:ed:81:e8:85:97:8c:41:46:96:
                    da:02:d7:b7:f5:ab:92:4c:ab:0a:e2:19:9f:b8:21:
                    07:5c:f7:d1:7e:6e:49:70:a9:c4:45:c3:b2:10:ab:
                    ca:50:e3:c9:ea:6f:b5:19:64:12:32:0e:93:59:f8:
                    8e:fc:a2:bc:33:f3:25:e4:59:98:6d:0e:97:76:b6:
                    da:9e:50:cf:4d:a1:6b:62:ce:47:84:1d:f7:82:8a:
                    da:d0:90:e7:a6:1f:43:25:61:57:c3:15:7e:e0:b8:
                    5c:17
                Exponent: 65537 (0x10001)
        X509v3 extensions:
            X509v3 Basic Constraints: 
                CA:FALSE
            Netscape Comment: 
                nats.io nats-server test-suite certificate
            X509v3 Subject Key Identifier: 
                0A:AC:82:F2:35:73:89:FB:49:07:EB:9C:87:72:D9:91:26:DF:84:8A
            X509v3 Authority Key Identifier: 
                keyid:D4:C7:DB:DB:77:CF:B8:81:61:2E:18:E7:46:B3:24:0C:26:60:F8:CE
                DirName:/C=US/ST=California/O=Synadia/OU=nats.io/CN=Certificate Authority 2026-05-03
                serial:4A:7C:25:EB:FB:D6:47:99:67:9C:8D:34:80:67:26:55:4E:F6:E0:6D
            X509v3 Subject Alternative Name: 
                IP Address:127.0.0.1, IP Address:0:0:0:0:0:0:0:1
            Netscape Cert Type: 
                SSL Client, SSL Server
            X509v3 Key Usage: 
                Digital Signature, Key Encipherment
            X509v3 Extended Key Usage: 
                TLS Web Server Authentication, Netscape Server Gated Crypto, Microsoft Server Gated Crypto, TLS Web Client Authentication
    Signature Algorithm: sha256WithRSAEncryption
    Signature Value:
        a6:95:32:78:12:71:52:6f:7e:3e:cd:53:3a:30:66:32:2d:56:
        b7:c7:d4:6e:0a:d0:4f:da:9c:74:6a:02:06:0a:10:aa:22:fb:
        92:18:ab:57:6b:fe:41:21:e0:06:7e:ef:9c:84:8e:71:80:4f:
        fc:36:6f:11:82:13:35:23:8e:62:07:77:0f:a2:ca:be:15:c1:
        6f:e7:aa:3f:90:9f:28:be:c3:fa:46:8d:c1:e2:c5:44:60:14:
        70:6f:4a:da:3a:05:e7:b5:7e:ff:c8:5a:de:94:f3:7d:f4:bd:
        14:d9:24:cc:ad:82:9a:1d:97:f8:16:bd:e2:4f:42:3d:dd:41:
        d1:91:b6:a1:d5:51:87:f7:fd:09:3b:84:42:99:0f:10:00:a1:
        6f:2b:5a:da:63:4a:c3:80:6b:a9:53:a1:d9:17:9d:f1:41:d3:
        63:c8:e0:0b:d2:79:49:a9:71:30:46:a2:d0:af:66:5e:65:b5:
        99:db:bb:6d:9c:f6:4d:d8:3d:02:08:7f:61:ab:6b:29:55:62:
        3a:7b:ec:b1:32:ec:ee:5b:c9:4b:68:1c:69:16:a4:8d:a0:45:
        af:ac:0d:51:c7:df:0f:12:e0:3a:0e:8d:85:ae:a6:c3:7c:7a:
        5a:68:73:3d:24:c8:23:72:87:5f:cd:9d:f8:52:ce:76:04:0d:
        83:c7:54:1b
-----BEGIN CERTIFICATE-----
MIIE9jCCA96gAwIBAgIUCORmFDRohL9nIvjMWL3FzvQ8BAowDQYJKoZIhvcNAQEL
BQAwcTELMAkGA1UEBhMCVVMxEzARBgNVBAgMCkNhbGlmb3JuaWExEDAOBgNVBAoM
B1N5bmFkaWExEDAOBgNVBAsMB25hdHMuaW8xKTAnBgNVBAMMIENlcnRpZmljYXRl
IEF1dGhvcml0eSAyMDI2LTA1LTAzMB4XDTI2MDUwMzEyNDAwMVoXDTM2MDQzMDEy
NDAwMVowYjELMAkGA1UEBhMCVVMxEzARBgNVBAgMCkNhbGlmb3JuaWExEDAOBgNV
BAoMB1N5bmFkaWExEDAOBgNVBAsMB25hdHMuaW8xGjAYBgNVBAMMEWlwLW9ubHkt
bG9jYWxob3N0MIIBIjANBgkqhkiG9w0BAQEFAAOCAQ8AMIIBCgKCAQEAvZjcFEmS
QxpzNnVtwTNzs+f2iuID9yST6zbaj2TGVhm3ktLx39NPfnjO29xu1FxYpKd5a0n/
MDfZcZIh15FyjRohdQ+AI/AvDmoaYpvrHnTf32GKBagxt9SX7sZgG2+xhZusPc2h
nqi1VoTOn4xkpVdBdYHGAMjYPe+FnHgESVqUKa8nCr5WYGugUgZT9c/OR5zPUIod
kjoh0STtgeiFl4xBRpbaAte39auSTKsK4hmfuCEHXPfRfm5JcKnERcOyEKvKUOPJ
6m+1GWQSMg6TWfiO/KK8M/Ml5FmYbQ6XdrbanlDPTaFrYs5HhB33gora0JDnph9D
JWFXwxV+4LhcFwIDAQABo4IBkzCCAY8wCQYDVR0TBAIwADA5BglghkgBhvhCAQ0E
LBYqbmF0cy5pbyBuYXRzLXNlcnZlciB0ZXN0LXN1aXRlIGNlcnRpZmljYXRlMB0G
A1UdDgQWBBQKrILyNXOJ+0kH65yHctmRJt+EijCBrgYDVR0jBIGmMIGjgBTUx9vb
d8+4gWEuGOdGsyQMJmD4zqF1pHMwcTELMAkGA1UEBhMCVVMxEzARBgNVBAgMCkNh
bGlmb3JuaWExEDAOBgNVBAoMB1N5bmFkaWExEDAOBgNVBAsMB25hdHMuaW8xKTAn
BgNVBAMMIENlcnRpZmljYXRlIEF1dGhvcml0eSAyMDI2LTA1LTAzghRKfCXr+9ZH
mWecjTSAZyZVTvbgbTAhBgNVHREEGjAYhwR/AAABhxAAAAAAAAAAAAAAAAAAAAAB
MBEGCWCGSAGG+EIBAQQEAwIGwDALBgNVHQ8EBAMCBaAwNAYDVR0lBC0wKwYIKwYB
BQUHAwEGCWCGSAGG+EIEAQYKKwYBBAGCNwoDAwYIKwYBBQUHAwIwDQYJKoZIhvcN
AQELBQADggEBAKaVMngScVJvfj7NUzowZjItVrfH1G4K0E/anHRqAgYKEKoi+5IY
q1dr/kEh4AZ+75yEjnGAT/w2bxGCEzUjjmIHdw+iyr4VwW/nqj+Qnyi+w/pGjcHi
xURgFHBvSto6Bee1fv/IWt6U8330vRTZJMytgpodl/gWveJPQj3dQdGRtqHVUYf3
/Qk7hEKZDxAAoW8rWtpjSsOAa6lTodkXnfFB02PI4AvSeUmpcTBGotCvZl5ltZnb
u22c9k3YPQIIf2GraylVYjp77LEy7O5byUtoHGkWpI2gRa+sDVHH3w8S4DoOjYWu
psN8elpocz0kyCNyh1/NnfhSznYEDYPHVBs=
-----END CERTIFICATE-----
