Certificate:
    Data:
        Version: 3 (0x2)
        Serial Number:
            5f:5a:31:67:ea:3d:7b:4c:0e:7b:ce:96:e6:82:13:eb:7b:3c:56:b9
        Signature Algorithm: sha256WithRSAEncryption
        Issuer: C=US, ST=California, O=Synadia, OU=nats.io, CN=Certificate Authority 2026-05-03
        Validity
            Not Before: May  3 12:40:01 2026 GMT
            Not After : Apr 30 12:40:01 2036 GMT
        Subject: C=US, ST=California, O=Synadia, OU=nats.io, CN=localhost
        Subject Public Key Info:
            Public Key Algorithm: rsaEncryption
                Public-Key: (2048 bit)
                Modulus:
                    00:ad:f0:87:3f:32:66:87:7a:31:9b:ca:54:0a:ae:
                    a6:1a:ca:25:d5:c5:fc:49:6b:21:0b:de:a7:15:c8:
                    9c:3c:cd:41:1d:32:25:77:68:7b:83:e8:5d:14:7a:
                    2e:0b:ea:41:91:a4:20:ec:20:17:0f:cb:8d:4c:1b:
                    88:a0:d2:77:46:65:7e:d1:a0:e6:4c:4b:c6:8c:39:
                    a1:b3:5b:34:57:c8:a1:10:0c:13:54:3a:74:90:7b:
                    3b:ba:da:41:62:81:f5:dc:b5:73:6c:83:38:f4:a1:
                    52:ab:bd:c2:95:3e:79:ff:af:a4:ae:df:d6:11:d9:
                    29:20:b8:b4:15:e3:32:93:5c:36:ce:56:b4:01:02:
                    a1:45:31:a3:a1:1e:ea:b8:c4:01:04:57:11:44:f4:
                    55:ea:e2:ae:68:08:70:85:c0:5b:ff:ba:bf:de:8b:
                    bc:a1:c6:03:a2:2f:8a:eb:9e:b7:79:3a:67:6a:b0:
                    70:d3:e8:08:a7:12:24:d5:bb:57:88:72:37:c8:e6:
                    2e:db:87:e0:2a:71:1a:2c:90:9c:88:29:0c:75:28:
                    84:d6:7f:75:2d:50:08:36:2b:cf:f3:ba:33:72:1e:
                    7a:07:db:20:da:98:3b:39:86:96:4c:e2:4a:42:61:
                    1a:9b:0b:67:4d:6d:13:d1:9f:40:df:12:c7:8d:9d:
                    50:69
                Exponent: 65537 (0x10001)
        X509v3 extensions:
            X509v3 Basic Constraints: 
                CA:FALSE
            Netscape Comment: 
                nats.io nats-server test-suite certificate
            X509v3 Subject Key Identifier: 
                C9:AA:3C:08:39:7E:C1:42:C0:3D:B7:2F:84:21:E7:8A:30:E7:C7:B1
            X509v3 Authority Key Identifier: 
                keyid:D4:C7:DB:DB:77:CF:B8:81:61:2E:18:E7:46:B3:24:0C:26:60:F8:CE
                DirName:/C=US/ST=California/O=Synadia/OU=nats.io/CN=Certificate Authority 2026-05-03
                serial:4A:7C:25:EB:FB:D6:47:99:67:9C:8D:34:80:67:26:55:4E:F6:E0:6D
            X509v3 Subject Alternative Name: 
                DNS:localhost
            Netscape Cert Type: 
                SSL Client, SSL Server
            X509v3 Key Usage: 
                Digital Signature, Key Encipherment
            X509v3 Extended Key Usage: 
                TLS Web Server Authentication, Netscape Server Gated Crypto, Microsoft Server Gated Crypto, TLS Web Client Authentication
    Signature Algorithm: sha256WithRSAEncryption
    Signature Value:
        af:d7:4b:55:a3:30:bf:23:cb:21:7d:e4:5e:c8:09:b6:79:26:
        f7:25:eb:c1:e8:be:52:f4:6a:47:93:9d:98:98:07:33:81:3d:
        45:1b:b0:3e:31:50:22:89:c2:2b:92:82:7d:53:33:87:64:e7:
        a0:2d:c6:95:38:98:fb:bd:33:98:b1:c1:0e:81:1b:cf:3c:74:
        ef:b8:76:d1:d5:b3:f9:ac:56:c8:00:e6:6c:9a:3e:1d:f3:a2:
        b5:18:41:c2:e3:e9:8c:56:40:d7:7d:e5:8f:f3:e3:2b:b9:87:
        b3:e7:3a:21:8d:46:95:6d:f4:3d:cc:02:87:4f:a3:0c:b7:6f:
        20:76:cf:2f:c0:28:d0:c6:68:20:64:60:67:a9:ff:11:78:1e:
        7a:2e:18:55:11:9f:f5:1d:3d:d5:ed:01:80:90:0c:1d:6e:15:
        fc:fc:a8:e4:b6:88:82:8c:e7:16:fb:14:b4:69:f7:af:55:46:
        66:07:6d:68:b2:61:8d:e7:bc:4e:ce:8f:e0:f7:f5:d6:92:97:
        d7:df:3c:ad:ee:97:d6:c2:cf:02:b6:f2:66:df:25:1f:68:f0:
        57:e2:bc:f6:2a:61:9f:fa:60:a1:ee:25:0f:cc:9b:96:42:b2:
        d7:d2:70:c0:59:de:a9:ee:f6:bd:ec:45:6e:a5:28:0f:03:6f:
        8f:c8:e7:71
-----BEGIN CERTIFICATE-----
MIIE4TCCA8mgAwIBAgIUX1oxZ+o9e0wOe86W5oIT63s8VrkwDQYJKoZIhvcNAQEL
BQAwcTELMAkGA1UEBhMCVVMxEzARBgNVBAgMCkNhbGlmb3JuaWExEDAOBgNVBAoM
B1N5bmFkaWExEDAOBgNVBAsMB25hdHMuaW8xKTAnBgNVBAMMIENlcnRpZmljYXRl
IEF1dGhvcml0eSAyMDI2LTA1LTAzMB4XDTI2MDUwMzEyNDAwMVoXDTM2MDQzMDEy
NDAwMVowWjELMAkGA1UEBhMCVVMxEzARBgNVBAgMCkNhbGlmb3JuaWExEDAOBgNV
BAoMB1N5bmFkaWExEDAOBgNVBAsMB25hdHMuaW8xEjAQBgNVBAMMCWxvY2FsaG9z
dDCCASIwDQYJKoZIhvcNAQEBBQADggEPADCCAQoCggEBAK3whz8yZod6MZvKVAqu
phrKJdXF/ElrIQvepxXInDzNQR0yJXdoe4PoXRR6LgvqQZGkIOwgFw/LjUwbiKDS
d0ZlftGg5kxLxow5obNbNFfIoRAME1Q6dJB7O7raQWKB9dy1c2yDOPShUqu9wpU+
ef+vpK7f1hHZKSC4tBXjMpNcNs5WtAECoUUxo6Ee6rjEAQRXEUT0VerirmgIcIXA
W/+6v96LvKHGA6Iviuuet3k6Z2qwcNPoCKcSJNW7V4hyN8jmLtuH4CpxGiyQnIgp
DHUohNZ/dS1QCDYrz/O6M3IeegfbINqYOzmGlkziSkJhGpsLZ01tE9GfQN8Sx42d
UGkCAwEAAaOCAYYwggGCMAkGA1UdEwQCMAAwOQYJYIZIAYb4QgENBCwWKm5hdHMu
aW8gbmF0cy1zZXJ2ZXIgdGVzdC1zdWl0ZSBjZXJ0aWZpY2F0ZTAdBgNVHQ4EFgQU
yao8CDl+wULAPbcvhCHnijDnx7Ewga4GA1UdIwSBpjCBo4AU1Mfb23fPuIFhLhjn
RrMkDCZg+M6hdaRzMHExCzAJBgNVBAYTAlVTMRMwEQYDVQQIDApDYWxpZm9ybmlh
MRAwDgYDVQQKDAdTeW5hZGlhMRAwDgYDVQQLDAduYXRzLmlvMSkwJwYDVQQDDCBD
ZXJ0aWZpY2F0ZSBBdXRob3JpdHkgMjAyNi0wNS0wM4IUSnwl6/vWR5lnnI00gGcm
VU724G0wFAYDVR0RBA0wC4IJbG9jYWxob3N0MBEGCWCGSAGG+EIBAQQEAwIGwDAL
BgNVHQ8EBAMCBaAwNAYDVR0lBC0wKwYIKwYBBQUHAwEGCWCGSAGG+EIEAQYKKwYB
BAGCNwoDAwYIKwYBBQUHAwIwDQYJKoZIhvcNAQELBQADggEBAK/XS1WjML8jyyF9
5F7ICbZ5Jvcl68HovlL0akeTnZiYBzOBPUUbsD4xUCKJwiuSgn1TM4dk56AtxpU4
mPu9M5ixwQ6BG888dO+4dtHVs/msVsgA5myaPh3zorUYQcLj6YxWQNd95Y/z4yu5
h7PnOiGNRpVt9D3MAodPowy3byB2zy/AKNDGaCBkYGep/xF4HnouGFURn/UdPdXt
AYCQDB1uFfz8qOS2iIKM5xb7FLRp969VRmYHbWiyYY3nvE7Oj+D39daSl9ffPK3u
l9bCzwK28mbfJR9o8FfivPYqYZ/6YKHuJQ/Mm5ZCstfScMBZ3qnu9r3sRW6lKA8D
b4/I53E=
-----END CERTIFICATE-----
