Certificate:
    Data:
        Version: 3 (0x2)
        Serial Number:
            21:8e:d4:f9:10:fc:32:5f:46:45:23:53:14:03:f0:b2:dc:a1:d7:e5
        Signature Algorithm: sha256WithRSAEncryption
        Issuer: C=US, ST=California, O=Synadia, OU=nats.io, CN=Certificate Authority 2022-08-27
        Validity
            Not Before: Aug 27 20:23:02 2022 GMT
            Not After : Aug 24 20:23:02 2032 GMT
        Subject: C=US, ST=California, O=Synadia, OU=nats.io, CN=ip-only-localhost
        Subject Public Key Info:
            Public Key Algorithm: rsaEncryption
                RSA Public-Key: (2048 bit)
                Modulus:
                    00:bd:98:dc:14:49:92:43:1a:73:36:75:6d:c1:33:
                    73:b3:e7:f6:8a:e2:03:f7:24:93:eb:36:da:8f:64:
                    c6:56:19:b7:92:d2:f1:df:d3:4f:7e:78:ce:db:dc:
                    6e:d4:5c:58:a4:a7:79:6b:49:ff:30:37:d9:71:92:
                    21:d7:91:72:8d:1a:21:75:0f:80:23:f0:2f:0e:6a:
                    1a:62:9b:eb:1e:74:df:df:61:8a:05:a8:31:b7:d4:
                    97:ee:c6:60:1b:6f:b1:85:9b:ac:3d:cd:a1:9e:a8:
                    b5:56:84:ce:9f:8c:64:a5:57:41:75:81:c6:00:c8:
                    d8:3d:ef:85:9c:78:04:49:5a:94:29:af:27:0a:be:
                    56:60:6b:a0:52:06:53:f5:cf:ce:47:9c:cf:50:8a:
                    1d:92:3a:21:d1:24:ed:81:e8:85:97:8c:41:46:96:
                    da:02:d7:b7:f5:ab:92:4c:ab:0a:e2:19:9f:b8:21:
                    07:5c:f7:d1:7e:6e:49:70:a9:c4:45:c3:b2:10:ab:
                    ca:50:e3:c9:ea:6f:b5:19:64:12:32:0e:93:59:f8:
                    8e:fc:a2:bc:33:f3:25:e4:59:98:6d:0e:97:76:b6:
                    da:9e:50:cf:4d:a1:6b:62:ce:47:84:1d:f7:82:8a:
                    da:d0:90:e7:a6:1f:43:25:61:57:c3:15:7e:e0:b8:
                    5c:17
                Exponent: 65537 (0x10001)
        X509v3 extensions:
            X509v3 Basic Constraints: 
                CA:FALSE
            Netscape Comment: 
                nats.io nats-server test-suite certificate
            X509v3 Subject Key Identifier: 
                0A:AC:82:F2:35:73:89:FB:49:07:EB:9C:87:72:D9:91:26:DF:84:8A
            X509v3 Authority Key Identifier: 
                keyid:FE:CF:7F:3E:2E:EE:C4:AD:EA:5B:6F:88:45:6C:C7:88:48:14:8B:3A
                DirName:/C=US/ST=California/O=Synadia/OU=nats.io/CN=Certificate Authority 2022-08-27
                serial:49:9C:16:ED:BB:5C:F4:45:1B:AC:C5:AD:8C:7A:5B:33:40:B6:6D:21

            X509v3 Subject Alternative Name: 
                IP Address:127.0.0.1, IP Address:0:0:0:0:0:0:0:1
            Netscape Cert Type: 
                SSL Client, SSL Server
            X509v3 Key Usage: 
                Digital Signature, Key Encipherment
            X509v3 Extended Key Usage: 
                TLS Web Server Authentication, Netscape Server Gated Crypto, Microsoft Server Gated Crypto, TLS Web Client Authentication
    Signature Algorithm: sha256WithRSAEncryption
         87:00:2d:ec:ea:ab:13:3e:21:6c:4a:3e:f1:9b:c3:ab:c5:81:
         d3:34:2d:cb:f1:e7:98:96:13:a3:7f:29:00:83:70:20:81:56:
         a1:31:b7:d9:fa:35:02:f4:6f:32:8a:58:cf:68:39:e1:f9:fb:
         50:20:60:85:f1:bd:22:73:e6:ac:b6:36:38:75:86:de:8a:cf:
         e5:41:df:0f:bd:61:94:3d:3a:59:81:50:c5:44:39:47:d9:e8:
         56:2a:b4:2c:59:b7:89:f5:5d:a7:28:15:6e:98:1e:47:47:7d:
         a6:35:65:de:b7:06:9e:04:67:98:04:f9:57:54:82:2a:dc:e2:
         6a:76:df:06:05:b4:61:84:ec:7d:5e:46:34:ea:14:b7:14:16:
         fe:51:0e:65:52:c6:74:96:8e:30:3a:b9:c2:d5:05:2d:a8:08:
         11:ba:7e:65:c1:89:c3:61:ec:d6:06:e0:7e:ac:11:ee:18:89:
         67:59:1d:6b:dc:cc:1e:48:c5:79:5b:8f:18:7e:e4:c4:9f:4f:
         3d:a9:11:60:28:77:49:e7:23:4d:fa:49:8d:6b:5a:52:57:9b:
         bf:a7:d7:da:13:45:64:dd:d3:2f:4c:14:eb:79:46:8f:fd:41:
         ab:88:17:d4:8e:77:45:8c:7f:cb:e5:d8:19:7c:1b:1e:cd:21:
         32:43:a3:c9
-----BEGIN CERTIFICATE-----
MIIE9jCCA96gAwIBAgIUIY7U+RD8Ml9GRSNTFAPwstyh1+UwDQYJKoZIhvcNAQEL
BQAwcTELMAkGA1UEBhMCVVMxEzARBgNVBAgMCkNhbGlmb3JuaWExEDAOBgNVBAoM
B1N5bmFkaWExEDAOBgNVBAsMB25hdHMuaW8xKTAnBgNVBAMMIENlcnRpZmljYXRl
IEF1dGhvcml0eSAyMDIyLTA4LTI3MB4XDTIyMDgyNzIwMjMwMloXDTMyMDgyNDIw
MjMwMlowYjELMAkGA1UEBhMCVVMxEzARBgNVBAgMCkNhbGlmb3JuaWExEDAOBgNV
BAoMB1N5bmFkaWExEDAOBgNVBAsMB25hdHMuaW8xGjAYBgNVBAMMEWlwLW9ubHkt
bG9jYWxob3N0MIIBIjANBgkqhkiG9w0BAQEFAAOCAQ8AMIIBCgKCAQEAvZjcFEmS
QxpzNnVtwTNzs+f2iuID9yST6zbaj2TGVhm3ktLx39NPfnjO29xu1FxYpKd5a0n/
MDfZcZIh15FyjRohdQ+AI/AvDmoaYpvrHnTf32GKBagxt9SX7sZgG2+xhZusPc2h
nqi1VoTOn4xkpVdBdYHGAMjYPe+FnHgESVqUKa8nCr5WYGugUgZT9c/OR5zPUIod
kjoh0STtgeiFl4xBRpbaAte39auSTKsK4hmfuCEHXPfRfm5JcKnERcOyEKvKUOPJ
6m+1GWQSMg6TWfiO/KK8M/Ml5FmYbQ6XdrbanlDPTaFrYs5HhB33gora0JDnph9D
JWFXwxV+4LhcFwIDAQABo4IBkzCCAY8wCQYDVR0TBAIwADA5BglghkgBhvhCAQ0E
LBYqbmF0cy5pbyBuYXRzLXNlcnZlciB0ZXN0LXN1aXRlIGNlcnRpZmljYXRlMB0G
A1UdDgQWBBQKrILyNXOJ+0kH65yHctmRJt+EijCBrgYDVR0jBIGmMIGjgBT+z38+
Lu7Erepbb4hFbMeISBSLOqF1pHMwcTELMAkGA1UEBhMCVVMxEzARBgNVBAgMCkNh
bGlmb3JuaWExEDAOBgNVBAoMB1N5bmFkaWExEDAOBgNVBAsMB25hdHMuaW8xKTAn
BgNVBAMMIENlcnRpZmljYXRlIEF1dGhvcml0eSAyMDIyLTA4LTI3ghRJnBbtu1z0
RRusxa2MelszQLZtITAhBgNVHREEGjAYhwR/AAABhxAAAAAAAAAAAAAAAAAAAAAB
MBEGCWCGSAGG+EIBAQQEAwIGwDALBgNVHQ8EBAMCBaAwNAYDVR0lBC0wKwYIKwYB
BQUHAwEGCWCGSAGG+EIEAQYKKwYBBAGCNwoDAwYIKwYBBQUHAwIwDQYJKoZIhvcN
AQELBQADggEBAIcALezqqxM+IWxKPvGbw6vFgdM0Lcvx55iWE6N/KQCDcCCBVqEx
t9n6NQL0bzKKWM9oOeH5+1AgYIXxvSJz5qy2Njh1ht6Kz+VB3w+9YZQ9OlmBUMVE
OUfZ6FYqtCxZt4n1XacoFW6YHkdHfaY1Zd63Bp4EZ5gE+VdUgirc4mp23wYFtGGE
7H1eRjTqFLcUFv5RDmVSxnSWjjA6ucLVBS2oCBG6fmXBicNh7NYG4H6sEe4YiWdZ
HWvczB5IxXlbjxh+5MSfTz2pEWAod0nnI036SY1rWlJXm7+n19oTRWTd0y9MFOt5
Ro/9QauIF9SOd0WMf8vl2Bl8Gx7NITJDo8k=
-----END CERTIFICATE-----
