Certificate:
    Data:
        Version: 3 (0x2)
        Serial Number:
            28:8f:14:43:33:ab:60:53:77:82:d6:e2:3f:cf:64:4b:21:e8:c2:fd
        Signature Algorithm: sha256WithRSAEncryption
        Issuer: C=US, ST=California, O=Synadia, OU=nats.io, CN=Certificate Authority 2026-05-03
        Validity
            Not Before: May  3 12:40:01 2026 GMT
            Not After : Apr 30 12:40:01 2036 GMT
        Subject: 
        Subject Public Key Info:
            Public Key Algorithm: rsaEncryption
                Public-Key: (2048 bit)
                Modulus:
                    00:c5:ba:dc:9b:7c:ea:56:f1:27:f0:23:7c:92:95:
                    bb:4f:82:7d:ac:0e:39:a6:e3:e9:d8:43:3a:32:8a:
                    05:45:ac:a9:58:d3:6b:8e:fb:3c:61:51:9e:83:33:
                    0b:3d:42:4b:df:08:9d:2d:96:40:6a:b3:d4:91:66:
                    85:8f:80:33:41:60:81:78:a4:31:c3:c0:66:4f:fe:
                    9e:e0:76:34:2c:10:1d:56:a8:e8:5e:b5:d6:fe:1e:
                    1f:22:1a:5f:7e:13:f7:61:df:a9:34:d9:e0:18:33:
                    a9:40:86:1e:7d:07:bf:b3:ae:c5:2b:e9:76:d0:3c:
                    0d:2f:8a:d7:16:c6:e7:77:0e:b3:fc:57:b0:a2:d4:
                    51:bd:7d:f8:e4:a4:03:ef:b0:c2:83:23:5c:a9:e4:
                    db:41:e5:62:bd:e2:75:a0:41:94:07:22:a3:da:76:
                    df:1e:80:4c:77:af:12:13:2a:d9:41:32:9b:2e:ee:
                    dd:d0:7a:32:c0:48:dd:f0:09:8e:85:91:4e:9c:d5:
                    5c:40:2e:d0:2e:05:f5:d4:2e:c2:ed:39:ca:ea:b8:
                    52:9f:4f:b6:68:53:61:9c:23:fe:b3:84:e6:18:6b:
                    6d:6a:e4:15:7d:7b:41:ec:d5:81:3c:78:e0:77:62:
                    e6:eb:23:4e:2a:f6:79:f9:c9:06:9d:73:ea:a3:bb:
                    e2:51
                Exponent: 65537 (0x10001)
        X509v3 extensions:
            X509v3 Basic Constraints: 
                CA:FALSE
            Netscape Comment: 
                nats.io nats-server test-suite certificate
            X509v3 Subject Key Identifier: 
                C7:83:60:0F:26:15:D9:B4:0E:81:B6:B2:26:84:A2:5E:5A:F3:D3:1A
            X509v3 Authority Key Identifier: 
                keyid:D4:C7:DB:DB:77:CF:B8:81:61:2E:18:E7:46:B3:24:0C:26:60:F8:CE
                DirName:/C=US/ST=California/O=Synadia/OU=nats.io/CN=Certificate Authority 2026-05-03
                serial:4A:7C:25:EB:FB:D6:47:99:67:9C:8D:34:80:67:26:55:4E:F6:E0:6D
            X509v3 Subject Alternative Name: 
                DNS:localhost
            Netscape Cert Type: 
                SSL Client, SSL Server
            X509v3 Key Usage: 
                Digital Signature, Key Encipherment
            X509v3 Extended Key Usage: 
                TLS Web Server Authentication, Netscape Server Gated Crypto, Microsoft Server Gated Crypto, TLS Web Client Authentication
    Signature Algorithm: sha256WithRSAEncryption
    Signature Value:
        8a:19:c4:1b:18:3c:29:11:09:f0:40:67:9e:bd:41:c1:f2:5a:
        d3:c8:c6:b5:71:3a:93:c1:f1:03:6d:a7:f3:90:e2:48:0a:ba:
        87:f3:54:7e:67:88:2c:26:95:43:0c:65:c3:62:fa:13:8e:6b:
        5e:65:05:67:16:55:38:38:d6:0d:95:96:dd:6b:93:7c:b2:99:
        6f:c0:ee:20:eb:9e:ed:09:f8:8c:1f:31:7a:00:bd:08:ed:54:
        64:c0:cc:36:35:98:6b:10:07:43:f8:dd:43:8d:fb:a2:f5:6b:
        93:be:97:e1:d1:c2:9d:10:80:24:71:ad:2c:3d:c8:fe:50:fd:
        87:ba:f2:83:8a:17:3a:32:0b:9c:16:cf:5f:c6:40:e5:95:b4:
        68:53:e3:35:d1:e4:8f:a7:80:df:b9:07:2e:56:d8:7e:0e:c7:
        c8:b6:27:94:c0:b2:6e:0d:35:dd:cf:90:c5:fe:1d:55:ec:14:
        bf:9a:75:ba:31:42:1b:e7:3e:84:9e:8a:cd:79:d4:f1:97:91:
        f2:5b:2f:b6:bb:a7:18:80:cd:10:c5:47:23:ee:c3:50:5e:b6:
        b9:fe:81:a1:30:5f:d5:63:66:2e:17:05:3b:fe:a6:ed:52:a9:
        9e:ea:a7:f4:4f:ef:a4:3d:41:0b:b8:56:1d:c6:8e:03:3f:ec:
        0e:db:93:6d
-----BEGIN CERTIFICATE-----
MIIEhzCCA2+gAwIBAgIUKI8UQzOrYFN3gtbiP89kSyHowv0wDQYJKoZIhvcNAQEL
BQAwcTELMAkGA1UEBhMCVVMxEzARBgNVBAgMCkNhbGlmb3JuaWExEDAOBgNVBAoM
B1N5bmFkaWExEDAOBgNVBAsMB25hdHMuaW8xKTAnBgNVBAMMIENlcnRpZmljYXRl
IEF1dGhvcml0eSAyMDI2LTA1LTAzMB4XDTI2MDUwMzEyNDAwMVoXDTM2MDQzMDEy
NDAwMVowADCCASIwDQYJKoZIhvcNAQEBBQADggEPADCCAQoCggEBAMW63Jt86lbx
J/AjfJKVu0+CfawOOabj6dhDOjKKBUWsqVjTa477PGFRnoMzCz1CS98InS2WQGqz
1JFmhY+AM0FggXikMcPAZk/+nuB2NCwQHVao6F611v4eHyIaX34T92HfqTTZ4Bgz
qUCGHn0Hv7OuxSvpdtA8DS+K1xbG53cOs/xXsKLUUb19+OSkA++wwoMjXKnk20Hl
Yr3idaBBlAcio9p23x6ATHevEhMq2UEymy7u3dB6MsBI3fAJjoWRTpzVXEAu0C4F
9dQuwu05yuq4Up9PtmhTYZwj/rOE5hhrbWrkFX17QezVgTx44Hdi5usjTir2efnJ
Bp1z6qO74lECAwEAAaOCAYYwggGCMAkGA1UdEwQCMAAwOQYJYIZIAYb4QgENBCwW
Km5hdHMuaW8gbmF0cy1zZXJ2ZXIgdGVzdC1zdWl0ZSBjZXJ0aWZpY2F0ZTAdBgNV
HQ4EFgQUx4NgDyYV2bQOgbayJoSiXlrz0xowga4GA1UdIwSBpjCBo4AU1Mfb23fP
uIFhLhjnRrMkDCZg+M6hdaRzMHExCzAJBgNVBAYTAlVTMRMwEQYDVQQIDApDYWxp
Zm9ybmlhMRAwDgYDVQQKDAdTeW5hZGlhMRAwDgYDVQQLDAduYXRzLmlvMSkwJwYD
VQQDDCBDZXJ0aWZpY2F0ZSBBdXRob3JpdHkgMjAyNi0wNS0wM4IUSnwl6/vWR5ln
nI00gGcmVU724G0wFAYDVR0RBA0wC4IJbG9jYWxob3N0MBEGCWCGSAGG+EIBAQQE
AwIGwDALBgNVHQ8EBAMCBaAwNAYDVR0lBC0wKwYIKwYBBQUHAwEGCWCGSAGG+EIE
AQYKKwYBBAGCNwoDAwYIKwYBBQUHAwIwDQYJKoZIhvcNAQELBQADggEBAIoZxBsY
PCkRCfBAZ569QcHyWtPIxrVxOpPB8QNtp/OQ4kgKuofzVH5niCwmlUMMZcNi+hOO
a15lBWcWVTg41g2Vlt1rk3yymW/A7iDrnu0J+IwfMXoAvQjtVGTAzDY1mGsQB0P4
3UON+6L1a5O+l+HRwp0QgCRxrSw9yP5Q/Ye68oOKFzoyC5wWz1/GQOWVtGhT4zXR
5I+ngN+5By5W2H4Ox8i2J5TAsm4NNd3PkMX+HVXsFL+adboxQhvnPoSeis151PGX
kfJbL7a7pxiAzRDFRyPuw1Betrn+gaEwX9VjZi4XBTv+pu1SqZ7qp/RP76Q9QQu4
Vh3GjgM/7A7bk20=
-----END CERTIFICATE-----
