Certificate:
    Data:
        Version: 3 (0x2)
        Serial Number:
            77:0f:ba:c1:58:65:ed:b9:8b:66:43:58:ee:2f:3a:37:c0:f5:6d:7a
        Signature Algorithm: sha256WithRSAEncryption
        Issuer: C=US, ST=California, O=Synadia, OU=nats.io, CN=Certificate Authority 2022-07-28
        Validity
            Not Before: Jul 28 06:52:52 2022 GMT
            Not After : Jul 25 06:52:52 2032 GMT
        Subject: C=US, ST=California, O=Synadia, OU=nats.io, CN=localhost
        Subject Public Key Info:
            Public Key Algorithm: rsaEncryption
                RSA Public-Key: (2048 bit)
                Modulus:
                    00:ad:f0:87:3f:32:66:87:7a:31:9b:ca:54:0a:ae:
                    a6:1a:ca:25:d5:c5:fc:49:6b:21:0b:de:a7:15:c8:
                    9c:3c:cd:41:1d:32:25:77:68:7b:83:e8:5d:14:7a:
                    2e:0b:ea:41:91:a4:20:ec:20:17:0f:cb:8d:4c:1b:
                    88:a0:d2:77:46:65:7e:d1:a0:e6:4c:4b:c6:8c:39:
                    a1:b3:5b:34:57:c8:a1:10:0c:13:54:3a:74:90:7b:
                    3b:ba:da:41:62:81:f5:dc:b5:73:6c:83:38:f4:a1:
                    52:ab:bd:c2:95:3e:79:ff:af:a4:ae:df:d6:11:d9:
                    29:20:b8:b4:15:e3:32:93:5c:36:ce:56:b4:01:02:
                    a1:45:31:a3:a1:1e:ea:b8:c4:01:04:57:11:44:f4:
                    55:ea:e2:ae:68:08:70:85:c0:5b:ff:ba:bf:de:8b:
                    bc:a1:c6:03:a2:2f:8a:eb:9e:b7:79:3a:67:6a:b0:
                    70:d3:e8:08:a7:12:24:d5:bb:57:88:72:37:c8:e6:
                    2e:db:87:e0:2a:71:1a:2c:90:9c:88:29:0c:75:28:
                    84:d6:7f:75:2d:50:08:36:2b:cf:f3:ba:33:72:1e:
                    7a:07:db:20:da:98:3b:39:86:96:4c:e2:4a:42:61:
                    1a:9b:0b:67:4d:6d:13:d1:9f:40:df:12:c7:8d:9d:
                    50:69
                Exponent: 65537 (0x10001)
        X509v3 extensions:
            X509v3 Basic Constraints: 
                CA:FALSE
            Netscape Comment: 
                nats.io nats-server test-suite certificate
            X509v3 Subject Key Identifier: 
                C9:AA:3C:08:39:7E:C1:42:C0:3D:B7:2F:84:21:E7:8A:30:E7:C7:B1
            X509v3 Authority Key Identifier: 
                keyid:4A:C2:12:A8:56:1F:08:4A:9B:33:42:10:F2:75:86:C3:45:17:4C:14
                DirName:/C=US/ST=California/O=Synadia/OU=nats.io/CN=Certificate Authority 2022-07-28
                serial:51:B7:7B:F5:26:C0:C7:F4:C9:3D:10:3E:A1:86:8C:47:67:2A:46:60

            X509v3 Subject Alternative Name: 
                DNS:localhost
            Netscape Cert Type: 
                SSL Client, SSL Server
            X509v3 Key Usage: 
                Digital Signature, Key Encipherment
            X509v3 Extended Key Usage: 
                TLS Web Server Authentication, Netscape Server Gated Crypto, Microsoft Server Gated Crypto, TLS Web Client Authentication
    Signature Algorithm: sha256WithRSAEncryption
         8a:6c:5f:ff:0f:ac:18:69:2c:f7:9c:29:23:21:00:c6:94:84:
         1c:a9:9f:1b:0c:e3:af:0c:81:ba:40:e3:ca:33:21:c2:55:e3:
         da:c9:90:5c:82:44:76:cd:8e:a4:04:7e:8d:4a:9e:b1:72:09:
         b6:01:0d:25:60:b8:e3:09:ea:68:1b:40:bc:78:95:46:b1:8f:
         ec:66:7b:5f:fa:23:be:80:16:93:ba:04:fb:07:c7:70:04:8f:
         c2:85:90:33:6b:4d:fc:de:cc:0e:61:67:8f:12:98:f1:38:0b:
         c9:bb:b4:64:6a:f6:73:5f:ba:00:cf:50:35:64:92:cc:26:76:
         4d:a4:2a:d9:47:e1:5c:48:45:52:23:03:dd:90:15:e5:1d:5d:
         10:53:dd:57:6f:32:03:39:0b:32:d7:ae:23:2f:9f:f9:12:a4:
         3a:3d:54:9d:18:56:bf:03:34:d5:4b:49:3e:12:5c:cc:a0:52:
         a5:da:2b:e6:cf:33:ce:8b:63:c2:00:a2:c0:aa:d8:ce:e8:b5:
         88:fb:53:0f:dd:45:35:1d:3a:d6:38:62:63:e5:e0:5f:a1:a7:
         8e:86:29:2d:a7:8f:aa:a4:1f:fd:f4:f5:3c:21:61:b3:d4:cd:
         1d:89:a1:a7:19:fb:e6:6b:41:44:50:ed:15:7f:65:23:01:3c:
         1a:e7:d7:c3
-----BEGIN CERTIFICATE-----
MIIE4TCCA8mgAwIBAgIUdw+6wVhl7bmLZkNY7i86N8D1bXowDQYJKoZIhvcNAQEL
BQAwcTELMAkGA1UEBhMCVVMxEzARBgNVBAgMCkNhbGlmb3JuaWExEDAOBgNVBAoM
B1N5bmFkaWExEDAOBgNVBAsMB25hdHMuaW8xKTAnBgNVBAMMIENlcnRpZmljYXRl
IEF1dGhvcml0eSAyMDIyLTA3LTI4MB4XDTIyMDcyODA2NTI1MloXDTMyMDcyNTA2
NTI1MlowWjELMAkGA1UEBhMCVVMxEzARBgNVBAgMCkNhbGlmb3JuaWExEDAOBgNV
BAoMB1N5bmFkaWExEDAOBgNVBAsMB25hdHMuaW8xEjAQBgNVBAMMCWxvY2FsaG9z
dDCCASIwDQYJKoZIhvcNAQEBBQADggEPADCCAQoCggEBAK3whz8yZod6MZvKVAqu
phrKJdXF/ElrIQvepxXInDzNQR0yJXdoe4PoXRR6LgvqQZGkIOwgFw/LjUwbiKDS
d0ZlftGg5kxLxow5obNbNFfIoRAME1Q6dJB7O7raQWKB9dy1c2yDOPShUqu9wpU+
ef+vpK7f1hHZKSC4tBXjMpNcNs5WtAECoUUxo6Ee6rjEAQRXEUT0VerirmgIcIXA
W/+6v96LvKHGA6Iviuuet3k6Z2qwcNPoCKcSJNW7V4hyN8jmLtuH4CpxGiyQnIgp
DHUohNZ/dS1QCDYrz/O6M3IeegfbINqYOzmGlkziSkJhGpsLZ01tE9GfQN8Sx42d
UGkCAwEAAaOCAYYwggGCMAkGA1UdEwQCMAAwOQYJYIZIAYb4QgENBCwWKm5hdHMu
aW8gbmF0cy1zZXJ2ZXIgdGVzdC1zdWl0ZSBjZXJ0aWZpY2F0ZTAdBgNVHQ4EFgQU
yao8CDl+wULAPbcvhCHnijDnx7Ewga4GA1UdIwSBpjCBo4AUSsISqFYfCEqbM0IQ
8nWGw0UXTBShdaRzMHExCzAJBgNVBAYTAlVTMRMwEQYDVQQIDApDYWxpZm9ybmlh
MRAwDgYDVQQKDAdTeW5hZGlhMRAwDgYDVQQLDAduYXRzLmlvMSkwJwYDVQQDDCBD
ZXJ0aWZpY2F0ZSBBdXRob3JpdHkgMjAyMi0wNy0yOIIUUbd79SbAx/TJPRA+oYaM
R2cqRmAwFAYDVR0RBA0wC4IJbG9jYWxob3N0MBEGCWCGSAGG+EIBAQQEAwIGwDAL
BgNVHQ8EBAMCBaAwNAYDVR0lBC0wKwYIKwYBBQUHAwEGCWCGSAGG+EIEAQYKKwYB
BAGCNwoDAwYIKwYBBQUHAwIwDQYJKoZIhvcNAQELBQADggEBAIpsX/8PrBhpLPec
KSMhAMaUhBypnxsM468MgbpA48ozIcJV49rJkFyCRHbNjqQEfo1KnrFyCbYBDSVg
uOMJ6mgbQLx4lUaxj+xme1/6I76AFpO6BPsHx3AEj8KFkDNrTfzezA5hZ48SmPE4
C8m7tGRq9nNfugDPUDVkkswmdk2kKtlH4VxIRVIjA92QFeUdXRBT3VdvMgM5CzLX
riMvn/kSpDo9VJ0YVr8DNNVLST4SXMygUqXaK+bPM86LY8IAosCq2M7otYj7Uw/d
RTUdOtY4YmPl4F+hp46GKS2nj6qkH/309TwhYbPUzR2JoacZ++ZrQURQ7RV/ZSMB
PBrn18M=
-----END CERTIFICATE-----
