Certificate:
    Data:
        Version: 3 (0x2)
        Serial Number:
            1d:3c:06:18:47:84:21:7d:e6:db:5f:dc:40:e5:11:99:92:98:af:aa
        Signature Algorithm: sha256WithRSAEncryption
        Issuer: C=US, ST=California, O=Synadia, OU=nats.io, CN=Certificate Authority 2026-05-03
        Validity
            Not Before: May  3 12:40:01 2026 GMT
            Not After : Apr 30 12:40:01 2036 GMT
        Subject: C=US, ST=California, O=Synadia, OU=nats.io, CN=localhost
        Subject Public Key Info:
            Public Key Algorithm: rsaEncryption
                Public-Key: (2048 bit)
                Modulus:
                    00:9f:b5:d0:95:c7:8c:ee:16:13:fc:d6:90:8c:75:
                    a9:3b:2c:ab:ff:b6:b6:ae:39:8f:c3:d4:75:7d:01:
                    ba:0b:f0:db:8a:72:2d:41:49:e1:f1:b5:f6:5c:32:
                    af:b0:46:89:ee:33:5d:84:47:69:a6:4b:de:3f:8b:
                    a4:29:4c:98:20:6b:94:29:bc:4b:cb:84:73:d1:6d:
                    35:15:63:f8:55:a7:50:b4:2e:3e:e5:61:8a:c4:a5:
                    fb:7a:88:aa:14:b2:06:36:8f:93:3b:8c:29:d2:ee:
                    f6:8f:e7:83:68:33:59:17:d6:1f:b4:05:4d:02:ff:
                    f3:a0:1f:15:2c:ad:8a:33:13:95:95:d7:b6:54:6f:
                    ac:cb:98:8c:fb:69:c7:a6:cc:77:5f:20:08:e7:8b:
                    3b:79:5d:7d:63:2e:6e:cf:ce:b6:04:d0:0a:c5:19:
                    6d:ed:aa:45:7d:32:c3:53:ba:5d:d6:5c:e5:30:e0:
                    c7:3c:2f:88:9e:0d:33:8a:c8:30:40:af:48:a6:aa:
                    4d:68:81:55:4f:43:cc:f2:79:3a:c2:23:0d:fe:09:
                    dc:c0:85:94:cf:c0:f4:e2:7e:c2:64:7a:55:41:f1:
                    3f:3d:e3:46:4a:ef:55:33:d2:ea:72:56:25:15:6c:
                    47:1b:4d:c5:da:d3:6a:cb:62:db:d4:7c:86:64:81:
                    86:61
                Exponent: 65537 (0x10001)
        X509v3 extensions:
            X509v3 Basic Constraints: 
                CA:FALSE
            Netscape Comment: 
                nats.io nats-server test-suite certificate
            X509v3 Subject Key Identifier: 
                C7:6D:8A:C9:67:13:C9:63:AB:01:87:58:33:DC:FB:24:AC:61:65:4E
            X509v3 Authority Key Identifier: 
                keyid:D4:C7:DB:DB:77:CF:B8:81:61:2E:18:E7:46:B3:24:0C:26:60:F8:CE
                DirName:/C=US/ST=California/O=Synadia/OU=nats.io/CN=Certificate Authority 2026-05-03
                serial:4A:7C:25:EB:FB:D6:47:99:67:9C:8D:34:80:67:26:55:4E:F6:E0:6D
            X509v3 Subject Alternative Name: 
                DNS:localhost, IP Address:127.0.0.1, IP Address:0:0:0:0:0:0:0:1
            Netscape Cert Type: 
                SSL Client, SSL Server
            X509v3 Key Usage: 
                Digital Signature, Key Encipherment
            X509v3 Extended Key Usage: 
                TLS Web Server Authentication, Netscape Server Gated Crypto, Microsoft Server Gated Crypto, TLS Web Client Authentication
    Signature Algorithm: sha256WithRSAEncryption
    Signature Value:
        44:93:d1:17:bd:75:16:8d:c2:54:dd:87:99:68:65:26:68:a4:
        a0:0b:6d:3c:63:52:2a:03:5d:c0:26:36:09:f9:b0:83:d2:60:
        f0:a1:a6:18:81:ec:58:f7:d5:5f:d8:36:54:f3:7f:dd:51:ff:
        3d:36:fd:2e:80:33:48:d3:15:8d:ae:f4:13:5a:70:7f:8a:06:
        d2:ff:b3:3e:cd:5a:5e:b9:d8:78:be:0d:c0:b1:19:fd:43:b0:
        a6:40:bb:d0:03:06:7c:de:66:7b:89:75:65:92:9b:43:c9:6f:
        87:da:c2:a9:fb:95:ba:f9:07:d7:88:be:fc:25:ca:bb:61:58:
        9d:9d:2a:f8:4c:21:e8:44:df:18:e7:ec:9f:89:c1:87:5c:ee:
        91:66:29:ad:b1:26:11:ee:49:2c:a5:65:23:3f:71:5b:62:71:
        ec:63:b9:e7:cb:87:3a:43:4a:7a:31:a7:1d:69:88:d2:34:ca:
        40:d0:55:02:c8:b6:34:fb:52:0c:91:7f:85:09:c9:dd:e3:98:
        cf:4d:c3:f6:1d:8c:4f:00:ab:c0:c9:8c:3c:10:ff:b0:0d:e9:
        28:80:61:7b:44:1c:39:7c:bb:4f:6d:63:2f:fe:04:88:6b:81:
        f2:73:ec:a4:c9:bd:c8:6e:95:c1:ad:67:92:9b:19:dc:99:6f:
        ea:23:57:78
-----BEGIN CERTIFICATE-----
MIIE+TCCA+GgAwIBAgIUHTwGGEeEIX3m21/cQOURmZKYr6owDQYJKoZIhvcNAQEL
BQAwcTELMAkGA1UEBhMCVVMxEzARBgNVBAgMCkNhbGlmb3JuaWExEDAOBgNVBAoM
B1N5bmFkaWExEDAOBgNVBAsMB25hdHMuaW8xKTAnBgNVBAMMIENlcnRpZmljYXRl
IEF1dGhvcml0eSAyMDI2LTA1LTAzMB4XDTI2MDUwMzEyNDAwMVoXDTM2MDQzMDEy
NDAwMVowWjELMAkGA1UEBhMCVVMxEzARBgNVBAgMCkNhbGlmb3JuaWExEDAOBgNV
BAoMB1N5bmFkaWExEDAOBgNVBAsMB25hdHMuaW8xEjAQBgNVBAMMCWxvY2FsaG9z
dDCCASIwDQYJKoZIhvcNAQEBBQADggEPADCCAQoCggEBAJ+10JXHjO4WE/zWkIx1
qTssq/+2tq45j8PUdX0Bugvw24pyLUFJ4fG19lwyr7BGie4zXYRHaaZL3j+LpClM
mCBrlCm8S8uEc9FtNRVj+FWnULQuPuVhisSl+3qIqhSyBjaPkzuMKdLu9o/ng2gz
WRfWH7QFTQL/86AfFSytijMTlZXXtlRvrMuYjPtpx6bMd18gCOeLO3ldfWMubs/O
tgTQCsUZbe2qRX0yw1O6XdZc5TDgxzwviJ4NM4rIMECvSKaqTWiBVU9DzPJ5OsIj
Df4J3MCFlM/A9OJ+wmR6VUHxPz3jRkrvVTPS6nJWJRVsRxtNxdrTasti29R8hmSB
hmECAwEAAaOCAZ4wggGaMAkGA1UdEwQCMAAwOQYJYIZIAYb4QgENBCwWKm5hdHMu
aW8gbmF0cy1zZXJ2ZXIgdGVzdC1zdWl0ZSBjZXJ0aWZpY2F0ZTAdBgNVHQ4EFgQU
x22KyWcTyWOrAYdYM9z7JKxhZU4wga4GA1UdIwSBpjCBo4AU1Mfb23fPuIFhLhjn
RrMkDCZg+M6hdaRzMHExCzAJBgNVBAYTAlVTMRMwEQYDVQQIDApDYWxpZm9ybmlh
MRAwDgYDVQQKDAdTeW5hZGlhMRAwDgYDVQQLDAduYXRzLmlvMSkwJwYDVQQDDCBD
ZXJ0aWZpY2F0ZSBBdXRob3JpdHkgMjAyNi0wNS0wM4IUSnwl6/vWR5lnnI00gGcm
VU724G0wLAYDVR0RBCUwI4IJbG9jYWxob3N0hwR/AAABhxAAAAAAAAAAAAAAAAAA
AAABMBEGCWCGSAGG+EIBAQQEAwIGwDALBgNVHQ8EBAMCBaAwNAYDVR0lBC0wKwYI
KwYBBQUHAwEGCWCGSAGG+EIEAQYKKwYBBAGCNwoDAwYIKwYBBQUHAwIwDQYJKoZI
hvcNAQELBQADggEBAEST0Re9dRaNwlTdh5loZSZopKALbTxjUioDXcAmNgn5sIPS
YPChphiB7Fj31V/YNlTzf91R/z02/S6AM0jTFY2u9BNacH+KBtL/sz7NWl652Hi+
DcCxGf1DsKZAu9ADBnzeZnuJdWWSm0PJb4fawqn7lbr5B9eIvvwlyrthWJ2dKvhM
IehE3xjn7J+JwYdc7pFmKa2xJhHuSSylZSM/cVticexjuefLhzpDSnoxpx1piNI0
ykDQVQLItjT7UgyRf4UJyd3jmM9Nw/YdjE8Aq8DJjDwQ/7AN6SiAYXtEHDl8u09t
Yy/+BIhrgfJz7KTJvchulcGtZ5KbGdyZb+ojV3g=
-----END CERTIFICATE-----
