Certificate:
    Data:
        Version: 3 (0x2)
        Serial Number:
            76:e8:46:2f:30:6c:26:1c:e7:7b:95:f5:ba:49:06:74:53:a4:29:88
        Signature Algorithm: sha256WithRSAEncryption
        Issuer: C=US, ST=California, O=Synadia, OU=nats.io, CN=Certificate Authority 2022-07-28
        Validity
            Not Before: Jul 28 06:52:52 2022 GMT
            Not After : Jul 25 06:52:52 2032 GMT
        Subject: C=US, ST=California, O=Synadia, OU=nats.io, CN=localhost
        Subject Public Key Info:
            Public Key Algorithm: rsaEncryption
                RSA Public-Key: (2048 bit)
                Modulus:
                    00:9f:b5:d0:95:c7:8c:ee:16:13:fc:d6:90:8c:75:
                    a9:3b:2c:ab:ff:b6:b6:ae:39:8f:c3:d4:75:7d:01:
                    ba:0b:f0:db:8a:72:2d:41:49:e1:f1:b5:f6:5c:32:
                    af:b0:46:89:ee:33:5d:84:47:69:a6:4b:de:3f:8b:
                    a4:29:4c:98:20:6b:94:29:bc:4b:cb:84:73:d1:6d:
                    35:15:63:f8:55:a7:50:b4:2e:3e:e5:61:8a:c4:a5:
                    fb:7a:88:aa:14:b2:06:36:8f:93:3b:8c:29:d2:ee:
                    f6:8f:e7:83:68:33:59:17:d6:1f:b4:05:4d:02:ff:
                    f3:a0:1f:15:2c:ad:8a:33:13:95:95:d7:b6:54:6f:
                    ac:cb:98:8c:fb:69:c7:a6:cc:77:5f:20:08:e7:8b:
                    3b:79:5d:7d:63:2e:6e:cf:ce:b6:04:d0:0a:c5:19:
                    6d:ed:aa:45:7d:32:c3:53:ba:5d:d6:5c:e5:30:e0:
                    c7:3c:2f:88:9e:0d:33:8a:c8:30:40:af:48:a6:aa:
                    4d:68:81:55:4f:43:cc:f2:79:3a:c2:23:0d:fe:09:
                    dc:c0:85:94:cf:c0:f4:e2:7e:c2:64:7a:55:41:f1:
                    3f:3d:e3:46:4a:ef:55:33:d2:ea:72:56:25:15:6c:
                    47:1b:4d:c5:da:d3:6a:cb:62:db:d4:7c:86:64:81:
                    86:61
                Exponent: 65537 (0x10001)
        X509v3 extensions:
            X509v3 Basic Constraints: 
                CA:FALSE
            Netscape Comment: 
                nats.io nats-server test-suite certificate
            X509v3 Subject Key Identifier: 
                C7:6D:8A:C9:67:13:C9:63:AB:01:87:58:33:DC:FB:24:AC:61:65:4E
            X509v3 Authority Key Identifier: 
                keyid:4A:C2:12:A8:56:1F:08:4A:9B:33:42:10:F2:75:86:C3:45:17:4C:14
                DirName:/C=US/ST=California/O=Synadia/OU=nats.io/CN=Certificate Authority 2022-07-28
                serial:51:B7:7B:F5:26:C0:C7:F4:C9:3D:10:3E:A1:86:8C:47:67:2A:46:60

            X509v3 Subject Alternative Name: 
                DNS:localhost, IP Address:127.0.0.1, IP Address:0:0:0:0:0:0:0:1
            Netscape Cert Type: 
                SSL Client, SSL Server
            X509v3 Key Usage: 
                Digital Signature, Key Encipherment
            X509v3 Extended Key Usage: 
                TLS Web Server Authentication, Netscape Server Gated Crypto, Microsoft Server Gated Crypto, TLS Web Client Authentication
    Signature Algorithm: sha256WithRSAEncryption
         81:72:82:31:e8:51:f9:db:7d:2c:d7:ff:9b:76:35:64:d2:83:
         20:a2:e1:a0:f8:52:11:ee:d9:f6:cd:d0:52:5b:4f:bf:2b:76:
         c7:be:a8:e3:9c:66:01:6b:e2:8f:27:65:9c:f3:04:6d:fa:40:
         5d:03:ac:c9:d8:b3:8e:a2:97:41:c9:92:dc:87:2f:25:a4:a8:
         77:82:2f:98:ea:1a:a0:1a:8c:e8:de:53:24:40:55:2b:aa:d3:
         25:c5:38:51:af:a2:ab:38:c8:92:17:06:e6:31:60:0b:3c:09:
         5b:8a:c0:cd:31:29:20:86:7a:0e:31:1e:d6:c4:42:e5:37:1e:
         ae:b0:03:79:aa:62:6e:8f:fa:69:70:a0:84:6a:72:fd:40:c2:
         b8:9a:56:fe:ad:23:ae:af:f7:54:f1:4e:65:7f:e9:b5:60:87:
         2b:1f:b0:ac:7c:db:e0:ec:23:c4:43:70:cf:45:34:91:71:e8:
         ca:d1:0b:a3:5d:03:21:96:d6:e9:0d:fa:86:09:59:a9:3c:cb:
         02:7f:f8:7f:92:a4:1c:6e:40:10:67:27:16:a6:ef:fd:95:c5:
         40:0f:a2:8f:31:3a:cd:aa:cf:68:2b:04:54:22:4c:57:e6:98:
         77:3e:96:a8:10:af:d2:ae:3c:21:e3:fc:43:7b:2b:5d:e1:b6:
         54:da:1a:c8
-----BEGIN CERTIFICATE-----
MIIE+TCCA+GgAwIBAgIUduhGLzBsJhzne5X1ukkGdFOkKYgwDQYJKoZIhvcNAQEL
BQAwcTELMAkGA1UEBhMCVVMxEzARBgNVBAgMCkNhbGlmb3JuaWExEDAOBgNVBAoM
B1N5bmFkaWExEDAOBgNVBAsMB25hdHMuaW8xKTAnBgNVBAMMIENlcnRpZmljYXRl
IEF1dGhvcml0eSAyMDIyLTA3LTI4MB4XDTIyMDcyODA2NTI1MloXDTMyMDcyNTA2
NTI1MlowWjELMAkGA1UEBhMCVVMxEzARBgNVBAgMCkNhbGlmb3JuaWExEDAOBgNV
BAoMB1N5bmFkaWExEDAOBgNVBAsMB25hdHMuaW8xEjAQBgNVBAMMCWxvY2FsaG9z
dDCCASIwDQYJKoZIhvcNAQEBBQADggEPADCCAQoCggEBAJ+10JXHjO4WE/zWkIx1
qTssq/+2tq45j8PUdX0Bugvw24pyLUFJ4fG19lwyr7BGie4zXYRHaaZL3j+LpClM
mCBrlCm8S8uEc9FtNRVj+FWnULQuPuVhisSl+3qIqhSyBjaPkzuMKdLu9o/ng2gz
WRfWH7QFTQL/86AfFSytijMTlZXXtlRvrMuYjPtpx6bMd18gCOeLO3ldfWMubs/O
tgTQCsUZbe2qRX0yw1O6XdZc5TDgxzwviJ4NM4rIMECvSKaqTWiBVU9DzPJ5OsIj
Df4J3MCFlM/A9OJ+wmR6VUHxPz3jRkrvVTPS6nJWJRVsRxtNxdrTasti29R8hmSB
hmECAwEAAaOCAZ4wggGaMAkGA1UdEwQCMAAwOQYJYIZIAYb4QgENBCwWKm5hdHMu
aW8gbmF0cy1zZXJ2ZXIgdGVzdC1zdWl0ZSBjZXJ0aWZpY2F0ZTAdBgNVHQ4EFgQU
x22KyWcTyWOrAYdYM9z7JKxhZU4wga4GA1UdIwSBpjCBo4AUSsISqFYfCEqbM0IQ
8nWGw0UXTBShdaRzMHExCzAJBgNVBAYTAlVTMRMwEQYDVQQIDApDYWxpZm9ybmlh
MRAwDgYDVQQKDAdTeW5hZGlhMRAwDgYDVQQLDAduYXRzLmlvMSkwJwYDVQQDDCBD
ZXJ0aWZpY2F0ZSBBdXRob3JpdHkgMjAyMi0wNy0yOIIUUbd79SbAx/TJPRA+oYaM
R2cqRmAwLAYDVR0RBCUwI4IJbG9jYWxob3N0hwR/AAABhxAAAAAAAAAAAAAAAAAA
AAABMBEGCWCGSAGG+EIBAQQEAwIGwDALBgNVHQ8EBAMCBaAwNAYDVR0lBC0wKwYI
KwYBBQUHAwEGCWCGSAGG+EIEAQYKKwYBBAGCNwoDAwYIKwYBBQUHAwIwDQYJKoZI
hvcNAQELBQADggEBAIFygjHoUfnbfSzX/5t2NWTSgyCi4aD4UhHu2fbN0FJbT78r
dse+qOOcZgFr4o8nZZzzBG36QF0DrMnYs46il0HJktyHLyWkqHeCL5jqGqAajOje
UyRAVSuq0yXFOFGvoqs4yJIXBuYxYAs8CVuKwM0xKSCGeg4xHtbEQuU3Hq6wA3mq
Ym6P+mlwoIRqcv1AwriaVv6tI66v91TxTmV/6bVghysfsKx82+DsI8RDcM9FNJFx
6MrRC6NdAyGW1ukN+oYJWak8ywJ/+H+SpBxuQBBnJxam7/2VxUAPoo8xOs2qz2gr
BFQiTFfmmHc+lqgQr9KuPCHj/EN7K13htlTaGsg=
-----END CERTIFICATE-----
