Certificate:
    Data:
        Version: 3 (0x2)
        Serial Number:
            0a:7d:45:32:e2:24:e3:81:f9:5a:64:e1:f2:50:92:d8:e2:3e:14:8e
        Signature Algorithm: sha256WithRSAEncryption
        Issuer: C=US, ST=California, O=Synadia, OU=nats.io, CN=Certificate Authority 2022-08-27
        Validity
            Not Before: Aug 27 20:23:02 2022 GMT
            Not After : Aug 24 20:23:02 2032 GMT
        Subject: C=US, ST=California, O=Synadia, OU=nats.io, CN=localhost
        Subject Public Key Info:
            Public Key Algorithm: rsaEncryption
                RSA Public-Key: (2048 bit)
                Modulus:
                    00:9f:b5:d0:95:c7:8c:ee:16:13:fc:d6:90:8c:75:
                    a9:3b:2c:ab:ff:b6:b6:ae:39:8f:c3:d4:75:7d:01:
                    ba:0b:f0:db:8a:72:2d:41:49:e1:f1:b5:f6:5c:32:
                    af:b0:46:89:ee:33:5d:84:47:69:a6:4b:de:3f:8b:
                    a4:29:4c:98:20:6b:94:29:bc:4b:cb:84:73:d1:6d:
                    35:15:63:f8:55:a7:50:b4:2e:3e:e5:61:8a:c4:a5:
                    fb:7a:88:aa:14:b2:06:36:8f:93:3b:8c:29:d2:ee:
                    f6:8f:e7:83:68:33:59:17:d6:1f:b4:05:4d:02:ff:
                    f3:a0:1f:15:2c:ad:8a:33:13:95:95:d7:b6:54:6f:
                    ac:cb:98:8c:fb:69:c7:a6:cc:77:5f:20:08:e7:8b:
                    3b:79:5d:7d:63:2e:6e:cf:ce:b6:04:d0:0a:c5:19:
                    6d:ed:aa:45:7d:32:c3:53:ba:5d:d6:5c:e5:30:e0:
                    c7:3c:2f:88:9e:0d:33:8a:c8:30:40:af:48:a6:aa:
                    4d:68:81:55:4f:43:cc:f2:79:3a:c2:23:0d:fe:09:
                    dc:c0:85:94:cf:c0:f4:e2:7e:c2:64:7a:55:41:f1:
                    3f:3d:e3:46:4a:ef:55:33:d2:ea:72:56:25:15:6c:
                    47:1b:4d:c5:da:d3:6a:cb:62:db:d4:7c:86:64:81:
                    86:61
                Exponent: 65537 (0x10001)
        X509v3 extensions:
            X509v3 Basic Constraints: 
                CA:FALSE
            Netscape Comment: 
                nats.io nats-server test-suite certificate
            X509v3 Subject Key Identifier: 
                C7:6D:8A:C9:67:13:C9:63:AB:01:87:58:33:DC:FB:24:AC:61:65:4E
            X509v3 Authority Key Identifier: 
                keyid:FE:CF:7F:3E:2E:EE:C4:AD:EA:5B:6F:88:45:6C:C7:88:48:14:8B:3A
                DirName:/C=US/ST=California/O=Synadia/OU=nats.io/CN=Certificate Authority 2022-08-27
                serial:49:9C:16:ED:BB:5C:F4:45:1B:AC:C5:AD:8C:7A:5B:33:40:B6:6D:21

            X509v3 Subject Alternative Name: 
                DNS:localhost, IP Address:127.0.0.1, IP Address:0:0:0:0:0:0:0:1
            Netscape Cert Type: 
                SSL Client, SSL Server
            X509v3 Key Usage: 
                Digital Signature, Key Encipherment
            X509v3 Extended Key Usage: 
                TLS Web Server Authentication, Netscape Server Gated Crypto, Microsoft Server Gated Crypto, TLS Web Client Authentication
    Signature Algorithm: sha256WithRSAEncryption
         a1:3f:db:97:03:ca:e3:34:36:01:8a:d9:34:1e:1e:9e:d5:bf:
         7b:9f:37:cf:61:2a:8e:fa:c3:cb:68:ca:f3:4e:04:78:8d:5a:
         0c:c0:5b:24:fe:56:a5:c0:7a:b1:bd:63:1e:ff:bf:72:9a:fa:
         08:33:4b:e0:2b:35:8b:03:c4:23:7f:54:3a:8a:f2:a9:28:d7:
         a8:7f:10:96:93:a3:b5:82:59:f1:b6:05:3b:58:cd:a1:8d:a9:
         77:fa:71:36:f7:68:c9:50:46:4c:0f:c3:f8:f8:90:0c:69:eb:
         53:e6:d0:5d:32:2f:d3:f7:b0:8d:75:68:59:37:d7:de:ee:da:
         42:99:1c:24:03:28:c4:42:8c:17:e4:ed:5a:d8:70:32:01:fb:
         f8:57:f8:1a:2d:bd:f6:e1:35:12:28:65:ef:00:05:1b:e2:50:
         d3:1e:3c:25:34:56:5a:86:8c:30:9d:e0:f4:79:d8:09:7d:74:
         0d:70:3a:2c:67:2a:d6:d2:6b:ed:d4:bd:1d:f2:d6:02:74:2a:
         75:b9:8b:6b:a4:c1:c7:d8:42:58:ad:85:d1:0c:0f:14:88:12:
         57:34:60:9f:18:32:f2:75:77:69:30:42:65:3a:f7:c1:16:49:
         76:21:ea:cd:95:b1:29:d1:66:e2:90:e9:86:c4:7b:2d:aa:2b:
         00:6e:59:f6
-----BEGIN CERTIFICATE-----
MIIE+TCCA+GgAwIBAgIUCn1FMuIk44H5WmTh8lCS2OI+FI4wDQYJKoZIhvcNAQEL
BQAwcTELMAkGA1UEBhMCVVMxEzARBgNVBAgMCkNhbGlmb3JuaWExEDAOBgNVBAoM
B1N5bmFkaWExEDAOBgNVBAsMB25hdHMuaW8xKTAnBgNVBAMMIENlcnRpZmljYXRl
IEF1dGhvcml0eSAyMDIyLTA4LTI3MB4XDTIyMDgyNzIwMjMwMloXDTMyMDgyNDIw
MjMwMlowWjELMAkGA1UEBhMCVVMxEzARBgNVBAgMCkNhbGlmb3JuaWExEDAOBgNV
BAoMB1N5bmFkaWExEDAOBgNVBAsMB25hdHMuaW8xEjAQBgNVBAMMCWxvY2FsaG9z
dDCCASIwDQYJKoZIhvcNAQEBBQADggEPADCCAQoCggEBAJ+10JXHjO4WE/zWkIx1
qTssq/+2tq45j8PUdX0Bugvw24pyLUFJ4fG19lwyr7BGie4zXYRHaaZL3j+LpClM
mCBrlCm8S8uEc9FtNRVj+FWnULQuPuVhisSl+3qIqhSyBjaPkzuMKdLu9o/ng2gz
WRfWH7QFTQL/86AfFSytijMTlZXXtlRvrMuYjPtpx6bMd18gCOeLO3ldfWMubs/O
tgTQCsUZbe2qRX0yw1O6XdZc5TDgxzwviJ4NM4rIMECvSKaqTWiBVU9DzPJ5OsIj
Df4J3MCFlM/A9OJ+wmR6VUHxPz3jRkrvVTPS6nJWJRVsRxtNxdrTasti29R8hmSB
hmECAwEAAaOCAZ4wggGaMAkGA1UdEwQCMAAwOQYJYIZIAYb4QgENBCwWKm5hdHMu
aW8gbmF0cy1zZXJ2ZXIgdGVzdC1zdWl0ZSBjZXJ0aWZpY2F0ZTAdBgNVHQ4EFgQU
x22KyWcTyWOrAYdYM9z7JKxhZU4wga4GA1UdIwSBpjCBo4AU/s9/Pi7uxK3qW2+I
RWzHiEgUizqhdaRzMHExCzAJBgNVBAYTAlVTMRMwEQYDVQQIDApDYWxpZm9ybmlh
MRAwDgYDVQQKDAdTeW5hZGlhMRAwDgYDVQQLDAduYXRzLmlvMSkwJwYDVQQDDCBD
ZXJ0aWZpY2F0ZSBBdXRob3JpdHkgMjAyMi0wOC0yN4IUSZwW7btc9EUbrMWtjHpb
M0C2bSEwLAYDVR0RBCUwI4IJbG9jYWxob3N0hwR/AAABhxAAAAAAAAAAAAAAAAAA
AAABMBEGCWCGSAGG+EIBAQQEAwIGwDALBgNVHQ8EBAMCBaAwNAYDVR0lBC0wKwYI
KwYBBQUHAwEGCWCGSAGG+EIEAQYKKwYBBAGCNwoDAwYIKwYBBQUHAwIwDQYJKoZI
hvcNAQELBQADggEBAKE/25cDyuM0NgGK2TQeHp7Vv3ufN89hKo76w8toyvNOBHiN
WgzAWyT+VqXAerG9Yx7/v3Ka+ggzS+ArNYsDxCN/VDqK8qko16h/EJaTo7WCWfG2
BTtYzaGNqXf6cTb3aMlQRkwPw/j4kAxp61Pm0F0yL9P3sI11aFk3197u2kKZHCQD
KMRCjBfk7VrYcDIB+/hX+BotvfbhNRIoZe8ABRviUNMePCU0VlqGjDCd4PR52Al9
dA1wOixnKtbSa+3UvR3y1gJ0KnW5i2ukwcfYQlithdEMDxSIElc0YJ8YMvJ1d2kw
QmU698EWSXYh6s2VsSnRZuKQ6YbEey2qKwBuWfY=
-----END CERTIFICATE-----
