Certificate:
    Data:
        Version: 3 (0x2)
        Serial Number:
            20:98:70:f3:55:1c:7e:a3:15:0c:64:c1:a2:8e:56:4d:4a:77:70:e8
        Signature Algorithm: sha256WithRSAEncryption
        Issuer: C=US, ST=California, O=Synadia, OU=nats.io, CN=Certificate Authority 2022-08-27
        Validity
            Not Before: Aug 27 20:23:02 2022 GMT
            Not After : Aug 24 20:23:02 2032 GMT
        Subject: C=US, ST=California, O=Synadia, OU=nats.io, CN=localhost
        Subject Public Key Info:
            Public Key Algorithm: rsaEncryption
                RSA Public-Key: (2048 bit)
                Modulus:
                    00:bc:15:41:85:42:e2:da:58:c4:d4:2b:8a:92:88:
                    cf:a8:81:5b:03:5d:8b:d5:44:32:07:ae:ef:a2:ff:
                    0f:29:14:dd:bf:7e:6b:37:e4:31:e1:94:7e:5e:be:
                    74:40:68:ce:3b:d5:bc:00:a6:42:fc:0f:e1:c5:8d:
                    4f:09:32:fc:af:6a:17:c8:92:3d:b0:2d:bd:ce:de:
                    7f:d8:bd:9e:5b:84:f8:b6:8c:a3:7e:98:37:f1:37:
                    1e:aa:cd:87:92:3f:33:34:17:0e:a1:78:3b:1a:88:
                    d6:73:c2:ce:41:71:81:ea:83:2d:f7:e5:e6:32:f1:
                    18:33:6b:ad:9d:ec:0a:3e:8e:74:a6:b7:7b:4b:22:
                    cb:0e:6b:57:14:cc:4d:c0:27:a1:38:30:df:35:e6:
                    fe:49:8d:4f:18:4d:be:5d:df:46:d0:4e:3d:00:93:
                    f8:e7:48:4c:6f:fb:13:c0:fb:6c:8a:9e:53:66:24:
                    3f:c3:93:66:57:6a:f6:66:88:94:b7:46:e1:e8:d6:
                    8a:04:02:92:e1:c5:c9:b1:71:f0:d2:1e:4a:69:8b:
                    0c:ac:a1:01:89:5f:1f:ac:79:da:8d:ad:bf:03:81:
                    b6:8c:70:5c:1e:74:f5:a4:d8:d1:8a:41:d7:bf:27:
                    51:d1:fc:75:b9:34:73:03:ae:10:2e:ab:78:a2:af:
                    e7:99
                Exponent: 65537 (0x10001)
        X509v3 extensions:
            X509v3 Basic Constraints: 
                CA:FALSE
            Netscape Comment: 
                nats.io nats-server test-suite certificate
            X509v3 Subject Key Identifier: 
                5F:CD:62:19:69:22:48:0B:79:B2:8F:53:D7:EA:C6:9B:C2:5E:58:94
            X509v3 Authority Key Identifier: 
                keyid:FE:CF:7F:3E:2E:EE:C4:AD:EA:5B:6F:88:45:6C:C7:88:48:14:8B:3A
                DirName:/C=US/ST=California/O=Synadia/OU=nats.io/CN=Certificate Authority 2022-08-27
                serial:49:9C:16:ED:BB:5C:F4:45:1B:AC:C5:AD:8C:7A:5B:33:40:B6:6D:21

            X509v3 Subject Alternative Name: 
                DNS:localhost, IP Address:127.0.0.1, IP Address:0:0:0:0:0:0:0:1
            Netscape Cert Type: 
                SSL Client, SSL Server
            X509v3 Key Usage: 
                Digital Signature, Key Encipherment
            X509v3 Extended Key Usage: 
                TLS Web Server Authentication, Netscape Server Gated Crypto, Microsoft Server Gated Crypto, TLS Web Client Authentication
    Signature Algorithm: sha256WithRSAEncryption
         08:6c:2f:cd:9d:b4:44:42:51:29:c2:55:92:e9:52:69:af:ae:
         c6:c4:4b:81:7a:a9:7c:81:f9:dd:27:fe:c1:e2:9b:59:92:38:
         1f:f4:d3:04:b7:ed:59:78:da:09:33:c0:c0:1d:60:79:07:78:
         15:aa:50:c4:f8:7c:47:96:a7:76:3f:ac:5f:eb:7d:8b:05:81:
         83:f7:be:7d:1e:6f:05:d4:bb:7b:ee:14:a8:af:e2:22:82:bf:
         25:7c:f2:30:38:98:68:43:c0:4a:08:80:11:81:be:c1:7e:43:
         22:cb:85:c3:b6:da:37:86:c5:7f:5b:8c:d9:b4:61:3a:08:c0:
         12:a0:a1:ea:2f:cd:58:da:41:8c:1e:10:1f:54:19:c2:6a:2e:
         3a:d9:0e:f6:7c:34:95:72:9a:41:ed:1e:79:84:1f:8e:89:8c:
         43:84:9d:32:42:e9:b5:db:1a:ab:2e:1a:f3:d1:b0:2b:38:fc:
         e3:c7:4f:1b:6f:9c:2e:3f:83:7a:fc:22:23:aa:64:6c:6f:c9:
         26:81:81:5b:f1:8c:ca:0a:ba:2d:91:f7:2f:ba:d4:7f:dc:53:
         e2:f6:1f:38:50:6e:6b:87:10:b6:02:af:56:f3:83:9f:3e:3d:
         83:e6:59:cf:3b:f8:bd:21:0a:8c:90:d4:26:74:70:1c:b1:cc:
         a6:3a:27:e1
-----BEGIN CERTIFICATE-----
MIIE+TCCA+GgAwIBAgIUIJhw81UcfqMVDGTBoo5WTUp3cOgwDQYJKoZIhvcNAQEL
BQAwcTELMAkGA1UEBhMCVVMxEzARBgNVBAgMCkNhbGlmb3JuaWExEDAOBgNVBAoM
B1N5bmFkaWExEDAOBgNVBAsMB25hdHMuaW8xKTAnBgNVBAMMIENlcnRpZmljYXRl
IEF1dGhvcml0eSAyMDIyLTA4LTI3MB4XDTIyMDgyNzIwMjMwMloXDTMyMDgyNDIw
MjMwMlowWjELMAkGA1UEBhMCVVMxEzARBgNVBAgMCkNhbGlmb3JuaWExEDAOBgNV
BAoMB1N5bmFkaWExEDAOBgNVBAsMB25hdHMuaW8xEjAQBgNVBAMMCWxvY2FsaG9z
dDCCASIwDQYJKoZIhvcNAQEBBQADggEPADCCAQoCggEBALwVQYVC4tpYxNQripKI
z6iBWwNdi9VEMgeu76L/DykU3b9+azfkMeGUfl6+dEBozjvVvACmQvwP4cWNTwky
/K9qF8iSPbAtvc7ef9i9nluE+LaMo36YN/E3HqrNh5I/MzQXDqF4OxqI1nPCzkFx
geqDLffl5jLxGDNrrZ3sCj6OdKa3e0siyw5rVxTMTcAnoTgw3zXm/kmNTxhNvl3f
RtBOPQCT+OdITG/7E8D7bIqeU2YkP8OTZldq9maIlLdG4ejWigQCkuHFybFx8NIe
SmmLDKyhAYlfH6x52o2tvwOBtoxwXB509aTY0YpB178nUdH8dbk0cwOuEC6reKKv
55kCAwEAAaOCAZ4wggGaMAkGA1UdEwQCMAAwOQYJYIZIAYb4QgENBCwWKm5hdHMu
aW8gbmF0cy1zZXJ2ZXIgdGVzdC1zdWl0ZSBjZXJ0aWZpY2F0ZTAdBgNVHQ4EFgQU
X81iGWkiSAt5so9T1+rGm8JeWJQwga4GA1UdIwSBpjCBo4AU/s9/Pi7uxK3qW2+I
RWzHiEgUizqhdaRzMHExCzAJBgNVBAYTAlVTMRMwEQYDVQQIDApDYWxpZm9ybmlh
MRAwDgYDVQQKDAdTeW5hZGlhMRAwDgYDVQQLDAduYXRzLmlvMSkwJwYDVQQDDCBD
ZXJ0aWZpY2F0ZSBBdXRob3JpdHkgMjAyMi0wOC0yN4IUSZwW7btc9EUbrMWtjHpb
M0C2bSEwLAYDVR0RBCUwI4IJbG9jYWxob3N0hwR/AAABhxAAAAAAAAAAAAAAAAAA
AAABMBEGCWCGSAGG+EIBAQQEAwIGwDALBgNVHQ8EBAMCBaAwNAYDVR0lBC0wKwYI
KwYBBQUHAwEGCWCGSAGG+EIEAQYKKwYBBAGCNwoDAwYIKwYBBQUHAwIwDQYJKoZI
hvcNAQELBQADggEBAAhsL82dtERCUSnCVZLpUmmvrsbES4F6qXyB+d0n/sHim1mS
OB/00wS37Vl42gkzwMAdYHkHeBWqUMT4fEeWp3Y/rF/rfYsFgYP3vn0ebwXUu3vu
FKiv4iKCvyV88jA4mGhDwEoIgBGBvsF+QyLLhcO22jeGxX9bjNm0YToIwBKgoeov
zVjaQYweEB9UGcJqLjrZDvZ8NJVymkHtHnmEH46JjEOEnTJC6bXbGqsuGvPRsCs4
/OPHTxtvnC4/g3r8IiOqZGxvySaBgVvxjMoKui2R9y+61H/cU+L2HzhQbmuHELYC
r1bzg58+PYPmWc87+L0hCoyQ1CZ0cByxzKY6J+E=
-----END CERTIFICATE-----
