Certificate:
    Data:
        Version: 3 (0x2)
        Serial Number:
            3b:46:0b:48:88:81:11:bc:98:bf:45:0e:a8:d6:7e:28:1f:74:38:23
        Signature Algorithm: sha256WithRSAEncryption
        Issuer: C=US, ST=California, O=Synadia, OU=nats.io, CN=Certificate Authority 2026-05-03
        Validity
            Not Before: May  3 12:40:01 2026 GMT
            Not After : Apr 30 12:40:01 2036 GMT
        Subject: C=US, ST=California, O=Synadia, OU=nats.io, CN=localhost
        Subject Public Key Info:
            Public Key Algorithm: rsaEncryption
                Public-Key: (2048 bit)
                Modulus:
                    00:bc:15:41:85:42:e2:da:58:c4:d4:2b:8a:92:88:
                    cf:a8:81:5b:03:5d:8b:d5:44:32:07:ae:ef:a2:ff:
                    0f:29:14:dd:bf:7e:6b:37:e4:31:e1:94:7e:5e:be:
                    74:40:68:ce:3b:d5:bc:00:a6:42:fc:0f:e1:c5:8d:
                    4f:09:32:fc:af:6a:17:c8:92:3d:b0:2d:bd:ce:de:
                    7f:d8:bd:9e:5b:84:f8:b6:8c:a3:7e:98:37:f1:37:
                    1e:aa:cd:87:92:3f:33:34:17:0e:a1:78:3b:1a:88:
                    d6:73:c2:ce:41:71:81:ea:83:2d:f7:e5:e6:32:f1:
                    18:33:6b:ad:9d:ec:0a:3e:8e:74:a6:b7:7b:4b:22:
                    cb:0e:6b:57:14:cc:4d:c0:27:a1:38:30:df:35:e6:
                    fe:49:8d:4f:18:4d:be:5d:df:46:d0:4e:3d:00:93:
                    f8:e7:48:4c:6f:fb:13:c0:fb:6c:8a:9e:53:66:24:
                    3f:c3:93:66:57:6a:f6:66:88:94:b7:46:e1:e8:d6:
                    8a:04:02:92:e1:c5:c9:b1:71:f0:d2:1e:4a:69:8b:
                    0c:ac:a1:01:89:5f:1f:ac:79:da:8d:ad:bf:03:81:
                    b6:8c:70:5c:1e:74:f5:a4:d8:d1:8a:41:d7:bf:27:
                    51:d1:fc:75:b9:34:73:03:ae:10:2e:ab:78:a2:af:
                    e7:99
                Exponent: 65537 (0x10001)
        X509v3 extensions:
            X509v3 Basic Constraints: 
                CA:FALSE
            Netscape Comment: 
                nats.io nats-server test-suite certificate
            X509v3 Subject Key Identifier: 
                5F:CD:62:19:69:22:48:0B:79:B2:8F:53:D7:EA:C6:9B:C2:5E:58:94
            X509v3 Authority Key Identifier: 
                keyid:D4:C7:DB:DB:77:CF:B8:81:61:2E:18:E7:46:B3:24:0C:26:60:F8:CE
                DirName:/C=US/ST=California/O=Synadia/OU=nats.io/CN=Certificate Authority 2026-05-03
                serial:4A:7C:25:EB:FB:D6:47:99:67:9C:8D:34:80:67:26:55:4E:F6:E0:6D
            X509v3 Subject Alternative Name: 
                DNS:localhost, IP Address:127.0.0.1, IP Address:0:0:0:0:0:0:0:1
            Netscape Cert Type: 
                SSL Client, SSL Server
            X509v3 Key Usage: 
                Digital Signature, Key Encipherment
            X509v3 Extended Key Usage: 
                TLS Web Server Authentication, Netscape Server Gated Crypto, Microsoft Server Gated Crypto, TLS Web Client Authentication
    Signature Algorithm: sha256WithRSAEncryption
    Signature Value:
        bd:6f:ad:3c:5e:54:45:65:ba:bb:35:7a:41:d4:a4:5f:23:3b:
        51:48:92:bf:12:f7:9d:1e:29:76:d9:f0:5c:35:59:50:0c:68:
        36:19:4c:39:fb:e2:10:06:a6:e3:1e:08:1c:bd:5e:53:7e:86:
        c7:df:11:c0:c3:e0:14:78:01:ae:84:f4:83:9f:9d:55:bf:62:
        5b:72:da:81:ed:ba:d0:7c:2a:39:09:ac:d5:32:c8:85:41:ab:
        d9:c5:8b:c3:72:ac:0d:c2:27:f4:db:3b:a1:c5:ae:95:d2:8a:
        a3:7d:4d:c4:17:04:75:d1:33:56:91:03:d7:5b:a1:3d:63:0c:
        16:73:43:56:33:aa:48:c6:63:11:9b:ac:ce:13:f1:dc:d8:7a:
        50:0b:8d:07:43:5a:90:ba:c7:03:49:df:f6:25:d9:13:bf:d4:
        30:33:b3:2e:74:18:06:bd:3a:b0:25:d7:0f:29:c6:d0:51:b2:
        32:b7:94:a3:de:2f:62:f5:f5:98:49:1d:54:54:e5:4f:30:51:
        2f:68:46:5a:22:b3:93:91:3e:59:7d:30:46:9e:f4:95:d6:1a:
        12:37:9e:2c:5e:c4:33:cb:94:5f:11:d6:72:a8:8b:bb:8a:81:
        59:17:e7:31:97:75:2b:e5:7f:37:45:e8:73:67:84:0d:92:9b:
        e7:e7:bb:0e
-----BEGIN CERTIFICATE-----
MIIE+TCCA+GgAwIBAgIUO0YLSIiBEbyYv0UOqNZ+KB90OCMwDQYJKoZIhvcNAQEL
BQAwcTELMAkGA1UEBhMCVVMxEzARBgNVBAgMCkNhbGlmb3JuaWExEDAOBgNVBAoM
B1N5bmFkaWExEDAOBgNVBAsMB25hdHMuaW8xKTAnBgNVBAMMIENlcnRpZmljYXRl
IEF1dGhvcml0eSAyMDI2LTA1LTAzMB4XDTI2MDUwMzEyNDAwMVoXDTM2MDQzMDEy
NDAwMVowWjELMAkGA1UEBhMCVVMxEzARBgNVBAgMCkNhbGlmb3JuaWExEDAOBgNV
BAoMB1N5bmFkaWExEDAOBgNVBAsMB25hdHMuaW8xEjAQBgNVBAMMCWxvY2FsaG9z
dDCCASIwDQYJKoZIhvcNAQEBBQADggEPADCCAQoCggEBALwVQYVC4tpYxNQripKI
z6iBWwNdi9VEMgeu76L/DykU3b9+azfkMeGUfl6+dEBozjvVvACmQvwP4cWNTwky
/K9qF8iSPbAtvc7ef9i9nluE+LaMo36YN/E3HqrNh5I/MzQXDqF4OxqI1nPCzkFx
geqDLffl5jLxGDNrrZ3sCj6OdKa3e0siyw5rVxTMTcAnoTgw3zXm/kmNTxhNvl3f
RtBOPQCT+OdITG/7E8D7bIqeU2YkP8OTZldq9maIlLdG4ejWigQCkuHFybFx8NIe
SmmLDKyhAYlfH6x52o2tvwOBtoxwXB509aTY0YpB178nUdH8dbk0cwOuEC6reKKv
55kCAwEAAaOCAZ4wggGaMAkGA1UdEwQCMAAwOQYJYIZIAYb4QgENBCwWKm5hdHMu
aW8gbmF0cy1zZXJ2ZXIgdGVzdC1zdWl0ZSBjZXJ0aWZpY2F0ZTAdBgNVHQ4EFgQU
X81iGWkiSAt5so9T1+rGm8JeWJQwga4GA1UdIwSBpjCBo4AU1Mfb23fPuIFhLhjn
RrMkDCZg+M6hdaRzMHExCzAJBgNVBAYTAlVTMRMwEQYDVQQIDApDYWxpZm9ybmlh
MRAwDgYDVQQKDAdTeW5hZGlhMRAwDgYDVQQLDAduYXRzLmlvMSkwJwYDVQQDDCBD
ZXJ0aWZpY2F0ZSBBdXRob3JpdHkgMjAyNi0wNS0wM4IUSnwl6/vWR5lnnI00gGcm
VU724G0wLAYDVR0RBCUwI4IJbG9jYWxob3N0hwR/AAABhxAAAAAAAAAAAAAAAAAA
AAABMBEGCWCGSAGG+EIBAQQEAwIGwDALBgNVHQ8EBAMCBaAwNAYDVR0lBC0wKwYI
KwYBBQUHAwEGCWCGSAGG+EIEAQYKKwYBBAGCNwoDAwYIKwYBBQUHAwIwDQYJKoZI
hvcNAQELBQADggEBAL1vrTxeVEVlurs1ekHUpF8jO1FIkr8S950eKXbZ8Fw1WVAM
aDYZTDn74hAGpuMeCBy9XlN+hsffEcDD4BR4Aa6E9IOfnVW/Ylty2oHtutB8KjkJ
rNUyyIVBq9nFi8NyrA3CJ/TbO6HFrpXSiqN9TcQXBHXRM1aRA9dboT1jDBZzQ1Yz
qkjGYxGbrM4T8dzYelALjQdDWpC6xwNJ3/Yl2RO/1DAzsy50GAa9OrAl1w8pxtBR
sjK3lKPeL2L19ZhJHVRU5U8wUS9oRlois5ORPll9MEae9JXWGhI3nixexDPLlF8R
1nKoi7uKgVkX5zGXdSvlfzdF6HNnhA2Sm+fnuw4=
-----END CERTIFICATE-----
