Certificate:
    Data:
        Version: 3 (0x2)
        Serial Number:
            63:ae:9e:f6:56:d1:59:79:47:e3:18:d8:98:46:86:2f:aa:8b:c4:6b
        Signature Algorithm: sha256WithRSAEncryption
        Issuer: C=US, ST=California, O=Synadia, OU=nats.io, CN=Certificate Authority 2022-07-28
        Validity
            Not Before: Jul 28 06:52:52 2022 GMT
            Not After : Jul 25 06:52:52 2032 GMT
        Subject: C=US, ST=California, O=Synadia, OU=nats.io, CN=localhost
        Subject Public Key Info:
            Public Key Algorithm: rsaEncryption
                RSA Public-Key: (2048 bit)
                Modulus:
                    00:bc:15:41:85:42:e2:da:58:c4:d4:2b:8a:92:88:
                    cf:a8:81:5b:03:5d:8b:d5:44:32:07:ae:ef:a2:ff:
                    0f:29:14:dd:bf:7e:6b:37:e4:31:e1:94:7e:5e:be:
                    74:40:68:ce:3b:d5:bc:00:a6:42:fc:0f:e1:c5:8d:
                    4f:09:32:fc:af:6a:17:c8:92:3d:b0:2d:bd:ce:de:
                    7f:d8:bd:9e:5b:84:f8:b6:8c:a3:7e:98:37:f1:37:
                    1e:aa:cd:87:92:3f:33:34:17:0e:a1:78:3b:1a:88:
                    d6:73:c2:ce:41:71:81:ea:83:2d:f7:e5:e6:32:f1:
                    18:33:6b:ad:9d:ec:0a:3e:8e:74:a6:b7:7b:4b:22:
                    cb:0e:6b:57:14:cc:4d:c0:27:a1:38:30:df:35:e6:
                    fe:49:8d:4f:18:4d:be:5d:df:46:d0:4e:3d:00:93:
                    f8:e7:48:4c:6f:fb:13:c0:fb:6c:8a:9e:53:66:24:
                    3f:c3:93:66:57:6a:f6:66:88:94:b7:46:e1:e8:d6:
                    8a:04:02:92:e1:c5:c9:b1:71:f0:d2:1e:4a:69:8b:
                    0c:ac:a1:01:89:5f:1f:ac:79:da:8d:ad:bf:03:81:
                    b6:8c:70:5c:1e:74:f5:a4:d8:d1:8a:41:d7:bf:27:
                    51:d1:fc:75:b9:34:73:03:ae:10:2e:ab:78:a2:af:
                    e7:99
                Exponent: 65537 (0x10001)
        X509v3 extensions:
            X509v3 Basic Constraints: 
                CA:FALSE
            Netscape Comment: 
                nats.io nats-server test-suite certificate
            X509v3 Subject Key Identifier: 
                5F:CD:62:19:69:22:48:0B:79:B2:8F:53:D7:EA:C6:9B:C2:5E:58:94
            X509v3 Authority Key Identifier: 
                keyid:4A:C2:12:A8:56:1F:08:4A:9B:33:42:10:F2:75:86:C3:45:17:4C:14
                DirName:/C=US/ST=California/O=Synadia/OU=nats.io/CN=Certificate Authority 2022-07-28
                serial:51:B7:7B:F5:26:C0:C7:F4:C9:3D:10:3E:A1:86:8C:47:67:2A:46:60

            X509v3 Subject Alternative Name: 
                DNS:localhost, IP Address:127.0.0.1, IP Address:0:0:0:0:0:0:0:1
            Netscape Cert Type: 
                SSL Client, SSL Server
            X509v3 Key Usage: 
                Digital Signature, Key Encipherment
            X509v3 Extended Key Usage: 
                TLS Web Server Authentication, Netscape Server Gated Crypto, Microsoft Server Gated Crypto, TLS Web Client Authentication
    Signature Algorithm: sha256WithRSAEncryption
         37:0d:ac:12:af:d5:18:c0:a3:1a:cf:01:a4:4f:99:c6:ea:f7:
         13:36:5a:8b:4a:cd:ee:43:5a:d9:fc:fc:0f:09:0f:7b:b3:b8:
         36:e3:dc:6d:53:18:1e:22:e9:51:6e:43:17:1d:1f:bd:ff:a2:
         b2:f5:84:58:8b:75:59:84:da:79:ce:5d:7d:98:05:d4:1a:89:
         a5:c7:41:03:c5:7f:43:da:9a:ee:ba:ca:e1:b2:e4:db:07:cb:
         aa:4c:3f:1d:76:4e:a8:4f:1a:31:ac:63:d9:58:44:31:6c:87:
         7a:73:5f:66:ef:cd:87:7b:b7:1b:a4:15:60:31:65:87:c0:34:
         91:d6:df:9e:e4:b9:58:ac:bf:f0:01:03:66:b2:81:74:6e:61:
         54:64:a6:e9:d8:d0:d6:0e:34:9c:d0:3a:67:0b:d1:38:19:96:
         7e:aa:14:63:82:a3:8b:93:f2:f0:62:7e:90:c0:90:0c:4b:d9:
         f9:7e:46:c3:53:b4:25:87:90:fb:7d:cb:e6:59:73:07:98:56:
         c2:3c:4d:59:15:bb:8f:8e:a2:a0:42:5e:b2:c3:de:29:2b:6d:
         c3:c4:2d:88:ea:d6:ea:1c:4c:33:43:af:c4:5d:e9:c9:c6:fc:
         5b:e3:6b:0d:38:f3:23:50:80:0f:90:58:14:08:3f:5e:d9:46:
         48:aa:99:29
-----BEGIN CERTIFICATE-----
MIIE+TCCA+GgAwIBAgIUY66e9lbRWXlH4xjYmEaGL6qLxGswDQYJKoZIhvcNAQEL
BQAwcTELMAkGA1UEBhMCVVMxEzARBgNVBAgMCkNhbGlmb3JuaWExEDAOBgNVBAoM
B1N5bmFkaWExEDAOBgNVBAsMB25hdHMuaW8xKTAnBgNVBAMMIENlcnRpZmljYXRl
IEF1dGhvcml0eSAyMDIyLTA3LTI4MB4XDTIyMDcyODA2NTI1MloXDTMyMDcyNTA2
NTI1MlowWjELMAkGA1UEBhMCVVMxEzARBgNVBAgMCkNhbGlmb3JuaWExEDAOBgNV
BAoMB1N5bmFkaWExEDAOBgNVBAsMB25hdHMuaW8xEjAQBgNVBAMMCWxvY2FsaG9z
dDCCASIwDQYJKoZIhvcNAQEBBQADggEPADCCAQoCggEBALwVQYVC4tpYxNQripKI
z6iBWwNdi9VEMgeu76L/DykU3b9+azfkMeGUfl6+dEBozjvVvACmQvwP4cWNTwky
/K9qF8iSPbAtvc7ef9i9nluE+LaMo36YN/E3HqrNh5I/MzQXDqF4OxqI1nPCzkFx
geqDLffl5jLxGDNrrZ3sCj6OdKa3e0siyw5rVxTMTcAnoTgw3zXm/kmNTxhNvl3f
RtBOPQCT+OdITG/7E8D7bIqeU2YkP8OTZldq9maIlLdG4ejWigQCkuHFybFx8NIe
SmmLDKyhAYlfH6x52o2tvwOBtoxwXB509aTY0YpB178nUdH8dbk0cwOuEC6reKKv
55kCAwEAAaOCAZ4wggGaMAkGA1UdEwQCMAAwOQYJYIZIAYb4QgENBCwWKm5hdHMu
aW8gbmF0cy1zZXJ2ZXIgdGVzdC1zdWl0ZSBjZXJ0aWZpY2F0ZTAdBgNVHQ4EFgQU
X81iGWkiSAt5so9T1+rGm8JeWJQwga4GA1UdIwSBpjCBo4AUSsISqFYfCEqbM0IQ
8nWGw0UXTBShdaRzMHExCzAJBgNVBAYTAlVTMRMwEQYDVQQIDApDYWxpZm9ybmlh
MRAwDgYDVQQKDAdTeW5hZGlhMRAwDgYDVQQLDAduYXRzLmlvMSkwJwYDVQQDDCBD
ZXJ0aWZpY2F0ZSBBdXRob3JpdHkgMjAyMi0wNy0yOIIUUbd79SbAx/TJPRA+oYaM
R2cqRmAwLAYDVR0RBCUwI4IJbG9jYWxob3N0hwR/AAABhxAAAAAAAAAAAAAAAAAA
AAABMBEGCWCGSAGG+EIBAQQEAwIGwDALBgNVHQ8EBAMCBaAwNAYDVR0lBC0wKwYI
KwYBBQUHAwEGCWCGSAGG+EIEAQYKKwYBBAGCNwoDAwYIKwYBBQUHAwIwDQYJKoZI
hvcNAQELBQADggEBADcNrBKv1RjAoxrPAaRPmcbq9xM2WotKze5DWtn8/A8JD3uz
uDbj3G1TGB4i6VFuQxcdH73/orL1hFiLdVmE2nnOXX2YBdQaiaXHQQPFf0Pamu66
yuGy5NsHy6pMPx12TqhPGjGsY9lYRDFsh3pzX2bvzYd7txukFWAxZYfANJHW357k
uVisv/ABA2aygXRuYVRkpunY0NYONJzQOmcL0TgZln6qFGOCo4uT8vBifpDAkAxL
2fl+RsNTtCWHkPt9y+ZZcweYVsI8TVkVu4+OoqBCXrLD3ikrbcPELYjq1uocTDND
r8Rd6cnG/Fvjaw048yNQgA+QWBQIP17ZRkiqmSk=
-----END CERTIFICATE-----
