Certificate:
    Data:
        Version: 3 (0x2)
        Serial Number:
            7b:97:35:73:2b:2b:5f:74:c6:43:83:8f:ae:65:5b:a0:f5:f4:ff:1f
        Signature Algorithm: sha256WithRSAEncryption
        Issuer: C=US, ST=WA, L=Tacoma, O=Testnats, CN=Intermediate CA 2
        Validity
            Not Before: May  1 19:29:28 2023 GMT
            Not After : Apr 28 19:29:28 2033 GMT
        Subject: C=US, ST=WA, L=Tacoma, O=Testnats, CN=OCSP Responder 2
        Subject Public Key Info:
            Public Key Algorithm: rsaEncryption
                Public-Key: (2048 bit)
                Modulus:
                    00:b8:98:3d:03:4d:5e:b2:66:5e:51:3b:f9:3d:f2:
                    7a:24:6b:70:5c:2f:7a:05:b2:51:77:62:45:e7:33:
                    75:77:db:31:6f:2d:13:32:cd:d3:a0:03:84:ee:f9:
                    2b:81:9d:e5:c9:ba:e2:25:c9:a7:18:2b:fd:f1:95:
                    ad:d3:46:90:d9:7b:7f:39:2d:85:b4:70:7c:72:44:
                    99:fb:df:9f:22:4c:81:77:35:bb:fe:41:7f:86:f5:
                    c7:29:53:7c:ee:d4:cc:09:54:fa:cc:b1:4d:4b:c2:
                    c7:c7:3e:1a:13:59:66:36:31:ae:60:1b:6a:05:b0:
                    5b:64:96:77:9d:74:cc:42:6e:13:d1:21:83:94:8e:
                    6c:4c:d8:42:57:94:17:ff:26:d4:d1:2f:64:58:b5:
                    47:1a:22:38:69:bf:c0:5a:9c:c3:88:01:0a:1d:f7:
                    d8:68:88:7c:57:5d:44:c4:71:d0:66:8d:1c:39:e0:
                    af:e8:f7:ce:51:60:7c:1d:b7:d5:e7:b5:3e:6a:a5:
                    2b:46:c3:4e:b9:ef:de:bd:a6:be:e2:66:79:a9:6a:
                    0d:c1:b2:e7:5e:03:9d:de:dd:41:b9:c9:80:2c:bd:
                    6d:1f:09:5f:4e:25:e7:ac:ff:23:47:8f:5f:74:69:
                    be:81:42:5c:e6:1a:f7:65:1f:eb:a1:d0:69:6f:be:
                    7e:89
                Exponent: 65537 (0x10001)
        X509v3 extensions:
            X509v3 Subject Key Identifier: 
                E4:4D:EE:6A:A3:30:91:37:3E:5C:1D:BD:26:96:5F:FF:DB:D3:E2:15
            X509v3 Authority Key Identifier: 
                75:55:E2:8E:E7:AD:A5:DD:80:3D:C9:33:0B:2C:A2:57:77:ED:15:AC
            X509v3 Basic Constraints: critical
                CA:FALSE
            X509v3 Key Usage: critical
                Digital Signature
            X509v3 Extended Key Usage: critical
                OCSP Signing
            X509v3 CRL Distribution Points: 
                Full Name:
                  URI:http://127.0.0.1:28888/intermediate2_crl.der
            Authority Information Access: 
                OCSP - URI:http://127.0.0.1:28888/
    Signature Algorithm: sha256WithRSAEncryption
    Signature Value:
        6c:d6:fa:8f:6f:c9:0a:99:0b:ee:6c:27:1f:75:52:b8:82:33:
        41:fe:01:a1:f8:c5:24:4e:9e:3b:e2:89:0f:01:2b:8e:c4:76:
        fb:d9:75:5a:b2:9c:e0:36:8d:fd:90:9f:28:92:1b:a3:74:fd:
        c5:39:28:51:06:ab:95:f7:64:95:e8:7b:d9:97:35:33:97:05:
        38:87:e6:e6:d7:a5:0b:a1:11:0c:b7:8b:76:b8:a9:46:33:ba:
        50:b3:3b:96:90:65:4b:ea:14:20:c9:f7:0d:8d:5e:89:c6:78:
        e3:0b:4f:d2:db:10:46:8a:c4:81:6f:20:13:30:83:a8:45:4d:
        2b:ef:f0:ce:18:a7:96:fc:b9:67:79:e9:a9:f0:2f:b2:33:1c:
        83:cf:a3:4b:df:fd:c5:58:ae:87:83:d9:be:22:85:58:41:f5:
        a0:a2:2d:56:98:40:12:78:c5:43:b0:50:34:0f:6c:0b:52:ad:
        68:e1:7a:9e:c1:54:58:bf:b4:f1:c5:3b:bf:97:e4:f9:44:09:
        f5:c7:67:7d:dc:3d:ea:a9:9f:0f:3a:aa:9c:4a:c1:ef:a1:52:
        25:e4:57:22:d6:af:c6:c9:c8:02:91:4b:ec:a2:d6:ba:b5:bf:
        ed:22:7c:b2:71:6c:78:f4:ba:e4:b9:b7:1f:11:65:d4:4f:77:
        4d:ef:b5:43
-----BEGIN CERTIFICATE-----
MIIELzCCAxegAwIBAgIUe5c1cysrX3TGQ4OPrmVboPX0/x8wDQYJKoZIhvcNAQEL
BQAwWjELMAkGA1UEBhMCVVMxCzAJBgNVBAgMAldBMQ8wDQYDVQQHDAZUYWNvbWEx
ETAPBgNVBAoMCFRlc3RuYXRzMRowGAYDVQQDDBFJbnRlcm1lZGlhdGUgQ0EgMjAe
Fw0yMzA1MDExOTI5MjhaFw0zMzA0MjgxOTI5MjhaMFkxCzAJBgNVBAYTAlVTMQsw
CQYDVQQIDAJXQTEPMA0GA1UEBwwGVGFjb21hMREwDwYDVQQKDAhUZXN0bmF0czEZ
MBcGA1UEAwwQT0NTUCBSZXNwb25kZXIgMjCCASIwDQYJKoZIhvcNAQEBBQADggEP
ADCCAQoCggEBALiYPQNNXrJmXlE7+T3yeiRrcFwvegWyUXdiReczdXfbMW8tEzLN
06ADhO75K4Gd5cm64iXJpxgr/fGVrdNGkNl7fzkthbRwfHJEmfvfnyJMgXc1u/5B
f4b1xylTfO7UzAlU+syxTUvCx8c+GhNZZjYxrmAbagWwW2SWd510zEJuE9Ehg5SO
bEzYQleUF/8m1NEvZFi1RxoiOGm/wFqcw4gBCh332GiIfFddRMRx0GaNHDngr+j3
zlFgfB231ee1PmqlK0bDTrnv3r2mvuJmealqDcGy514Dnd7dQbnJgCy9bR8JX04l
56z/I0ePX3RpvoFCXOYa92Uf66HQaW++fokCAwEAAaOB7TCB6jAdBgNVHQ4EFgQU
5E3uaqMwkTc+XB29JpZf/9vT4hUwHwYDVR0jBBgwFoAUdVXijuetpd2APckzCyyi
V3ftFawwDAYDVR0TAQH/BAIwADAOBgNVHQ8BAf8EBAMCB4AwFgYDVR0lAQH/BAww
CgYIKwYBBQUHAwkwPQYDVR0fBDYwNDAyoDCgLoYsaHR0cDovLzEyNy4wLjAuMToy
ODg4OC9pbnRlcm1lZGlhdGUyX2NybC5kZXIwMwYIKwYBBQUHAQEEJzAlMCMGCCsG
AQUFBzABhhdodHRwOi8vMTI3LjAuMC4xOjI4ODg4LzANBgkqhkiG9w0BAQsFAAOC
AQEAbNb6j2/JCpkL7mwnH3VSuIIzQf4BofjFJE6eO+KJDwErjsR2+9l1WrKc4DaN
/ZCfKJIbo3T9xTkoUQarlfdkleh72Zc1M5cFOIfm5telC6ERDLeLdripRjO6ULM7
lpBlS+oUIMn3DY1eicZ44wtP0tsQRorEgW8gEzCDqEVNK+/wzhinlvy5Z3npqfAv
sjMcg8+jS9/9xViuh4PZviKFWEH1oKItVphAEnjFQ7BQNA9sC1KtaOF6nsFUWL+0
8cU7v5fk+UQJ9cdnfdw96qmfDzqqnErB76FSJeRXItavxsnIApFL7KLWurW/7SJ8
snFsePS65Lm3HxFl1E93Te+1Qw==
-----END CERTIFICATE-----
